ARM GAS  C:\Users\jespe\AppData\Local\Temp\cc7jxOIC.s 			page 1


   1              		.syntax unified
   2              		.cpu cortex-m3
   3              		.fpu softvfp
   4              		.eabi_attribute 20, 1
   5              		.eabi_attribute 21, 1
   6              		.eabi_attribute 23, 3
   7              		.eabi_attribute 24, 1
   8              		.eabi_attribute 25, 1
   9              		.eabi_attribute 26, 1
  10              		.eabi_attribute 30, 1
  11              		.eabi_attribute 34, 1
  12              		.eabi_attribute 18, 4
  13              		.thumb
  14              		.syntax unified
  15              		.file	"main.c"
  16              		.text
  17              	.Ltext0:
  18              		.cfi_sections	.debug_frame
  19              		.section	.text.InterruptHandler,"ax",%progbits
  20              		.align	2
  21              		.global	InterruptHandler
  22              		.thumb
  23              		.thumb_func
  24              		.type	InterruptHandler, %function
  25              	InterruptHandler:
  26              	.LFB64:
  27              		.file 1 "main.c"
   1:main.c        **** #include "project.h"
   2:main.c        **** #include <stdio.h>
   3:main.c        **** #include <inttypes.h>
   4:main.c        **** 
   5:main.c        **** volatile uint16 startCount = 0;
   6:main.c        **** volatile uint16 stopCount = 0;
   7:main.c        **** static char outputBuffer[256];
   8:main.c        **** uint32 InterruptCnt;
   9:main.c        **** uint32 counter=0;
  10:main.c        **** 
  11:main.c        **** const uint32 tick_period_ms = 10;
  12:main.c        **** uint32 start_counter = 0;
  13:main.c        ****  uint32 stop_counter=0;
  14:main.c        ****  uint32 time_interval_ticks = 0;
  15:main.c        **** uint32 time_interval_ms=0;
  16:main.c        **** 
  17:main.c        **** CY_ISR_PROTO(ISR_UART_rx_handler);
  18:main.c        **** void handleByteReceived(uint8_t byteReceived);
  19:main.c        **** void stopTidsTagning();
  20:main.c        **** void startTidsTagning();
  21:main.c        **** 
  22:main.c        **** CY_ISR(InterruptHandler)
  23:main.c        **** {
  28              		.loc 1 23 0
  29              		.cfi_startproc
  30              		@ args = 0, pretend = 0, frame = 0
  31              		@ frame_needed = 0, uses_anonymous_args = 0
  32              		@ link register save eliminated.
  24:main.c        ****     /* Read Status register in order to clear the sticky Terminal Count (TC) bit
  25:main.c        ****      * in the status register. Note that the function is not called, but rather
ARM GAS  C:\Users\jespe\AppData\Local\Temp\cc7jxOIC.s 			page 2


  26:main.c        ****      * the status is read directly.
  27:main.c        ****      */
  28:main.c        ****     Timer_1_STATUS;
  33              		.loc 1 28 0
  34 0000 034B     		ldr	r3, .L2
  35 0002 1B78     		ldrb	r3, [r3]	@ zero_extendqisi2
  29:main.c        **** 
  30:main.c        ****     /* Increment the Counter to indicate the keep track of the number of
  31:main.c        ****      * interrupts received */
  32:main.c        ****     InterruptCnt++;
  36              		.loc 1 32 0
  37 0004 034A     		ldr	r2, .L2+4
  38 0006 1368     		ldr	r3, [r2]
  39 0008 0133     		adds	r3, r3, #1
  40 000a 1360     		str	r3, [r2]
  41 000c 7047     		bx	lr
  42              	.L3:
  43 000e 00BF     		.align	2
  44              	.L2:
  45 0010 6B640040 		.word	1073767531
  46 0014 00000000 		.word	InterruptCnt
  47              		.cfi_endproc
  48              	.LFE64:
  49              		.size	InterruptHandler, .-InterruptHandler
  50              		.section	.text.main,"ax",%progbits
  51              		.align	2
  52              		.global	main
  53              		.thumb
  54              		.thumb_func
  55              		.type	main, %function
  56              	main:
  57              	.LFB65:
  33:main.c        **** }
  34:main.c        **** 
  35:main.c        **** int main(void)
  36:main.c        **** {
  58              		.loc 1 36 0
  59              		.cfi_startproc
  60              		@ Volatile: function does not return.
  61              		@ args = 0, pretend = 0, frame = 0
  62              		@ frame_needed = 0, uses_anonymous_args = 0
  63 0000 08B5     		push	{r3, lr}
  64              		.cfi_def_cfa_offset 8
  65              		.cfi_offset 3, -8
  66              		.cfi_offset 14, -4
  37:main.c        ****     CyGlobalIntEnable; /* Enable global interrupts. */
  67              		.loc 1 37 0
  68              		.syntax unified
  69              	@ 37 "main.c" 1
  70 0002 62B6     		CPSIE   i
  71              	@ 0 "" 2
  38:main.c        **** 
  39:main.c        ****     UART_1_Start();
  72              		.loc 1 39 0
  73              		.thumb
  74              		.syntax unified
  75 0004 FFF7FEFF 		bl	UART_1_Start
ARM GAS  C:\Users\jespe\AppData\Local\Temp\cc7jxOIC.s 			page 3


  76              	.LVL0:
  40:main.c        ****     TimerISR_StartEx(InterruptHandler);
  77              		.loc 1 40 0
  78 0008 2C48     		ldr	r0, .L7
  79 000a FFF7FEFF 		bl	TimerISR_StartEx
  80              	.LVL1:
  41:main.c        **** 
  42:main.c        ****     /* Start the components */
  43:main.c        ****     Timer_1_Start();
  81              		.loc 1 43 0
  82 000e FFF7FEFF 		bl	Timer_1_Start
  83              	.LVL2:
  44:main.c        **** 
  45:main.c        ****     UART_1_PutString("Stop Watch started\r\n");
  84              		.loc 1 45 0
  85 0012 2B48     		ldr	r0, .L7+4
  86 0014 FFF7FEFF 		bl	UART_1_PutString
  87              	.LVL3:
  46:main.c        ****     UART_1_PutString("a: Start TidsTagning\r\n");
  88              		.loc 1 46 0
  89 0018 2A48     		ldr	r0, .L7+8
  90 001a FFF7FEFF 		bl	UART_1_PutString
  91              	.LVL4:
  47:main.c        ****     UART_1_PutString("s: Stop TidsTagning\r\n");
  92              		.loc 1 47 0
  93 001e 2A48     		ldr	r0, .L7+12
  94 0020 FFF7FEFF 		bl	UART_1_PutString
  95              	.LVL5:
  96              	.L5:
  48:main.c        **** 
  49:main.c        ****     for(;;)
  50:main.c        ****     {
  51:main.c        ****         
  52:main.c        ****         
  53:main.c        ****         
  54:main.c        **** 
  55:main.c        ****        
  56:main.c        ****         
  57:main.c        ****         
  58:main.c        ****         
  59:main.c        ****         //startTidsTagning();
  60:main.c        ****         start_counter = Timer_1_ReadCounter();
  97              		.loc 1 60 0 discriminator 1
  98 0024 FFF7FEFF 		bl	Timer_1_ReadCounter
  99              	.LVL6:
 100 0028 284C     		ldr	r4, .L7+16
 101 002a 2060     		str	r0, [r4]
  61:main.c        ****         
  62:main.c        ****         CyDelay(2000);
 102              		.loc 1 62 0 discriminator 1
 103 002c 4FF4FA60 		mov	r0, #2000
 104 0030 FFF7FEFF 		bl	CyDelay
 105              	.LVL7:
  63:main.c        ****         
  64:main.c        ****         stop_counter = Timer_1_ReadCounter();
 106              		.loc 1 64 0 discriminator 1
 107 0034 FFF7FEFF 		bl	Timer_1_ReadCounter
ARM GAS  C:\Users\jespe\AppData\Local\Temp\cc7jxOIC.s 			page 4


 108              	.LVL8:
 109 0038 6060     		str	r0, [r4, #4]
  65:main.c        **** 
  66:main.c        ****         // Beregn tidsintervallet i ticks
  67:main.c        ****         time_interval_ticks = start_counter - stop_counter;
 110              		.loc 1 67 0 discriminator 1
 111 003a 2368     		ldr	r3, [r4]
 112 003c 181A     		subs	r0, r3, r0
 113 003e A060     		str	r0, [r4, #8]
  68:main.c        **** 
  69:main.c        ****         // Konverter tidsintervallet til tid i millisekunder
  70:main.c        ****         time_interval_ms = time_interval_ticks * tick_period_ms;
 114              		.loc 1 70 0 discriminator 1
 115 0040 00EB8000 		add	r0, r0, r0, lsl #2
 116 0044 4200     		lsls	r2, r0, #1
 117 0046 E260     		str	r2, [r4, #12]
  71:main.c        ****         
  72:main.c        ****         sprintf(outputBuffer, "Counter: %lu\r\n",time_interval_ms);
 118              		.loc 1 72 0 discriminator 1
 119 0048 214E     		ldr	r6, .L7+20
 120 004a 04F11005 		add	r5, r4, #16
 121 004e 3146     		mov	r1, r6
 122 0050 2846     		mov	r0, r5
 123 0052 FFF7FEFF 		bl	sprintf
 124              	.LVL9:
  73:main.c        ****         
  74:main.c        ****         UART_1_PutString(outputBuffer);
 125              		.loc 1 74 0 discriminator 1
 126 0056 2846     		mov	r0, r5
 127 0058 FFF7FEFF 		bl	UART_1_PutString
 128              	.LVL10:
  75:main.c        **** 
  76:main.c        ****         //stopTidsTagning();
  77:main.c        ****         
  78:main.c        ****         //startTidsTagning();
  79:main.c        ****         start_counter = Timer_1_ReadCounter();
 129              		.loc 1 79 0 discriminator 1
 130 005c FFF7FEFF 		bl	Timer_1_ReadCounter
 131              	.LVL11:
 132 0060 2060     		str	r0, [r4]
  80:main.c        ****         CyDelay(4000);
 133              		.loc 1 80 0 discriminator 1
 134 0062 4FF47A60 		mov	r0, #4000
 135 0066 FFF7FEFF 		bl	CyDelay
 136              	.LVL12:
  81:main.c        **** 
  82:main.c        **** 
  83:main.c        ****         // Slut tidspunkt
  84:main.c        ****         stop_counter = Timer_1_ReadCounter();
 137              		.loc 1 84 0 discriminator 1
 138 006a FFF7FEFF 		bl	Timer_1_ReadCounter
 139              	.LVL13:
 140 006e 6060     		str	r0, [r4, #4]
  85:main.c        **** 
  86:main.c        ****         // Beregn tidsintervallet i ticks
  87:main.c        ****         time_interval_ticks = start_counter - stop_counter;
 141              		.loc 1 87 0 discriminator 1
ARM GAS  C:\Users\jespe\AppData\Local\Temp\cc7jxOIC.s 			page 5


 142 0070 2368     		ldr	r3, [r4]
 143 0072 181A     		subs	r0, r3, r0
 144 0074 A060     		str	r0, [r4, #8]
  88:main.c        **** 
  89:main.c        ****         // Konverter tidsintervallet til tid i millisekunder
  90:main.c        ****         time_interval_ms = time_interval_ticks * tick_period_ms;
 145              		.loc 1 90 0 discriminator 1
 146 0076 00EB8000 		add	r0, r0, r0, lsl #2
 147 007a 4200     		lsls	r2, r0, #1
 148 007c E260     		str	r2, [r4, #12]
  91:main.c        ****         
  92:main.c        ****         sprintf(outputBuffer, "Counter: %lu\r\n",time_interval_ms);
 149              		.loc 1 92 0 discriminator 1
 150 007e 3146     		mov	r1, r6
 151 0080 2846     		mov	r0, r5
 152 0082 FFF7FEFF 		bl	sprintf
 153              	.LVL14:
  93:main.c        ****         
  94:main.c        ****         UART_1_PutString(outputBuffer);
 154              		.loc 1 94 0 discriminator 1
 155 0086 2846     		mov	r0, r5
 156 0088 FFF7FEFF 		bl	UART_1_PutString
 157              	.LVL15:
  95:main.c        ****         //stopTidsTagning();
  96:main.c        ****         
  97:main.c        ****         //startTidsTagning();
  98:main.c        ****         
  99:main.c        ****         start_counter = Timer_1_ReadCounter();
 158              		.loc 1 99 0 discriminator 1
 159 008c FFF7FEFF 		bl	Timer_1_ReadCounter
 160              	.LVL16:
 161 0090 2060     		str	r0, [r4]
 100:main.c        ****         CyDelay(3000);
 162              		.loc 1 100 0 discriminator 1
 163 0092 40F6B830 		movw	r0, #3000
 164 0096 FFF7FEFF 		bl	CyDelay
 165              	.LVL17:
 101:main.c        **** 
 102:main.c        ****         // Slut tidspunkt
 103:main.c        ****         //stop_counter = Timer_1_ReadCounter();
 104:main.c        **** 
 105:main.c        ****         // Beregn tidsintervallet i ticks
 106:main.c        ****         time_interval_ticks = start_counter - stop_counter;
 166              		.loc 1 106 0 discriminator 1
 167 009a 2368     		ldr	r3, [r4]
 168 009c 6268     		ldr	r2, [r4, #4]
 169 009e 9B1A     		subs	r3, r3, r2
 170 00a0 A360     		str	r3, [r4, #8]
 107:main.c        **** 
 108:main.c        ****         // Konverter tidsintervallet til tid i millisekunder
 109:main.c        ****         time_interval_ms = time_interval_ticks * tick_period_ms;
 171              		.loc 1 109 0 discriminator 1
 172 00a2 03EB8303 		add	r3, r3, r3, lsl #2
 173 00a6 5A00     		lsls	r2, r3, #1
 174 00a8 E260     		str	r2, [r4, #12]
 110:main.c        ****         
 111:main.c        ****         sprintf(outputBuffer, "Counter: %lu\r\n",time_interval_ms);
ARM GAS  C:\Users\jespe\AppData\Local\Temp\cc7jxOIC.s 			page 6


 175              		.loc 1 111 0 discriminator 1
 176 00aa 3146     		mov	r1, r6
 177 00ac 2846     		mov	r0, r5
 178 00ae FFF7FEFF 		bl	sprintf
 179              	.LVL18:
 112:main.c        ****         
 113:main.c        ****         UART_1_PutString(outputBuffer);
 180              		.loc 1 113 0 discriminator 1
 181 00b2 2846     		mov	r0, r5
 182 00b4 FFF7FEFF 		bl	UART_1_PutString
 183              	.LVL19:
 184 00b8 B4E7     		b	.L5
 185              	.L8:
 186 00ba 00BF     		.align	2
 187              	.L7:
 188 00bc 00000000 		.word	InterruptHandler
 189 00c0 00000000 		.word	.LC0
 190 00c4 18000000 		.word	.LC1
 191 00c8 30000000 		.word	.LC2
 192 00cc 00000000 		.word	.LANCHOR0
 193 00d0 48000000 		.word	.LC3
 194              		.cfi_endproc
 195              	.LFE65:
 196              		.size	main, .-main
 197              		.section	.text.startTidsTagning,"ax",%progbits
 198              		.align	2
 199              		.global	startTidsTagning
 200              		.thumb
 201              		.thumb_func
 202              		.type	startTidsTagning, %function
 203              	startTidsTagning:
 204              	.LFB68:
 114:main.c        ****         
 115:main.c        ****         //stopTidsTagning();
 116:main.c        ****         
 117:main.c        ****     }
 118:main.c        **** }
 119:main.c        **** 
 120:main.c        **** CY_ISR(ISR_UART_rx_handler)
 121:main.c        **** {
 122:main.c        ****     uint8_t bytesToRead = UART_1_GetRxBufferSize();
 123:main.c        ****     while (bytesToRead > 0)
 124:main.c        ****     {
 125:main.c        ****         uint8_t byteReceived = UART_1_ReadRxData();
 126:main.c        ****         UART_1_WriteTxData(byteReceived); // echo back
 127:main.c        **** 
 128:main.c        ****         handleByteReceived(byteReceived);
 129:main.c        **** 
 130:main.c        ****         bytesToRead--;
 131:main.c        ****     }
 132:main.c        **** }
 133:main.c        **** 
 134:main.c        **** void handleByteReceived(uint8_t byteReceived)
 135:main.c        **** {
 136:main.c        ****     switch (byteReceived)
 137:main.c        ****     {
 138:main.c        ****     case 'a':
ARM GAS  C:\Users\jespe\AppData\Local\Temp\cc7jxOIC.s 			page 7


 139:main.c        ****     {
 140:main.c        ****         startTidsTagning();
 141:main.c        ****     }
 142:main.c        ****     break;
 143:main.c        ****     case 's':
 144:main.c        ****     {
 145:main.c        ****         stopTidsTagning();
 146:main.c        ****     }
 147:main.c        ****     break;
 148:main.c        ****     default:
 149:main.c        ****     {
 150:main.c        ****         // nothing
 151:main.c        ****     }
 152:main.c        ****     break;
 153:main.c        ****     }
 154:main.c        **** }
 155:main.c        **** 
 156:main.c        **** void startTidsTagning()
 157:main.c        **** {
 205              		.loc 1 157 0
 206              		.cfi_startproc
 207              		@ args = 0, pretend = 0, frame = 0
 208              		@ frame_needed = 0, uses_anonymous_args = 0
 209 0000 08B5     		push	{r3, lr}
 210              		.cfi_def_cfa_offset 8
 211              		.cfi_offset 3, -8
 212              		.cfi_offset 14, -4
 158:main.c        ****     UART_1_PutString("Time started\r\n");
 213              		.loc 1 158 0
 214 0002 0548     		ldr	r0, .L11
 215 0004 FFF7FEFF 		bl	UART_1_PutString
 216              	.LVL20:
 159:main.c        ****     Timer_1_Start();
 217              		.loc 1 159 0
 218 0008 FFF7FEFF 		bl	Timer_1_Start
 219              	.LVL21:
 160:main.c        ****     startCount = InterruptCnt;
 220              		.loc 1 160 0
 221 000c 034B     		ldr	r3, .L11+4
 222 000e 1A88     		ldrh	r2, [r3]
 223 0010 034B     		ldr	r3, .L11+8
 224 0012 A3F81021 		strh	r2, [r3, #272]	@ movhi
 225 0016 08BD     		pop	{r3, pc}
 226              	.L12:
 227              		.align	2
 228              	.L11:
 229 0018 58000000 		.word	.LC4
 230 001c 00000000 		.word	InterruptCnt
 231 0020 00000000 		.word	.LANCHOR0
 232              		.cfi_endproc
 233              	.LFE68:
 234              		.size	startTidsTagning, .-startTidsTagning
 235              		.section	.text.stopTidsTagning,"ax",%progbits
 236              		.align	2
 237              		.global	stopTidsTagning
 238              		.thumb
 239              		.thumb_func
ARM GAS  C:\Users\jespe\AppData\Local\Temp\cc7jxOIC.s 			page 8


 240              		.type	stopTidsTagning, %function
 241              	stopTidsTagning:
 242              	.LFB69:
 161:main.c        **** }
 162:main.c        **** 
 163:main.c        **** void stopTidsTagning()
 164:main.c        **** {
 243              		.loc 1 164 0
 244              		.cfi_startproc
 245              		@ args = 0, pretend = 0, frame = 0
 246              		@ frame_needed = 0, uses_anonymous_args = 0
 247 0000 10B5     		push	{r4, lr}
 248              		.cfi_def_cfa_offset 8
 249              		.cfi_offset 4, -8
 250              		.cfi_offset 14, -4
 165:main.c        ****     Timer_1_Stop();
 251              		.loc 1 165 0
 252 0002 FFF7FEFF 		bl	Timer_1_Stop
 253              	.LVL22:
 166:main.c        ****     stopCount = InterruptCnt;
 254              		.loc 1 166 0
 255 0006 0E4B     		ldr	r3, .L15
 256 0008 1B88     		ldrh	r3, [r3]
 257 000a 0E48     		ldr	r0, .L15+4
 258 000c A0F81231 		strh	r3, [r0, #274]	@ movhi
 167:main.c        ****     uint16 elapsed = (stopCount - startCount)*10;
 259              		.loc 1 167 0
 260 0010 B0F81221 		ldrh	r2, [r0, #274]
 261 0014 93B2     		uxth	r3, r2
 262 0016 B0F81021 		ldrh	r2, [r0, #272]
 263 001a 92B2     		uxth	r2, r2
 264 001c 9A1A     		subs	r2, r3, r2
 265 001e 02EB8202 		add	r2, r2, r2, lsl #2
 266 0022 5300     		lsls	r3, r2, #1
 267 0024 9BB2     		uxth	r3, r3
 268              	.LVL23:
 168:main.c        ****     snprintf(outputBuffer, sizeof(outputBuffer), "Time passed: %u ms \r\n", elapsed);
 269              		.loc 1 168 0
 270 0026 00F11004 		add	r4, r0, #16
 271 002a 074A     		ldr	r2, .L15+8
 272 002c 4FF48071 		mov	r1, #256
 273 0030 2046     		mov	r0, r4
 274 0032 FFF7FEFF 		bl	snprintf
 275              	.LVL24:
 169:main.c        ****     UART_1_PutString(outputBuffer);
 276              		.loc 1 169 0
 277 0036 2046     		mov	r0, r4
 278 0038 FFF7FEFF 		bl	UART_1_PutString
 279              	.LVL25:
 280 003c 10BD     		pop	{r4, pc}
 281              	.L16:
 282 003e 00BF     		.align	2
 283              	.L15:
 284 0040 00000000 		.word	InterruptCnt
 285 0044 00000000 		.word	.LANCHOR0
 286 0048 68000000 		.word	.LC5
 287              		.cfi_endproc
ARM GAS  C:\Users\jespe\AppData\Local\Temp\cc7jxOIC.s 			page 9


 288              	.LFE69:
 289              		.size	stopTidsTagning, .-stopTidsTagning
 290              		.section	.text.handleByteReceived,"ax",%progbits
 291              		.align	2
 292              		.global	handleByteReceived
 293              		.thumb
 294              		.thumb_func
 295              		.type	handleByteReceived, %function
 296              	handleByteReceived:
 297              	.LFB67:
 135:main.c        ****     switch (byteReceived)
 298              		.loc 1 135 0
 299              		.cfi_startproc
 300              		@ args = 0, pretend = 0, frame = 0
 301              		@ frame_needed = 0, uses_anonymous_args = 0
 302              	.LVL26:
 303 0000 08B5     		push	{r3, lr}
 304              		.cfi_def_cfa_offset 8
 305              		.cfi_offset 3, -8
 306              		.cfi_offset 14, -4
 136:main.c        ****     {
 307              		.loc 1 136 0
 308 0002 6128     		cmp	r0, #97
 309 0004 02D0     		beq	.L19
 310 0006 7328     		cmp	r0, #115
 311 0008 03D0     		beq	.L20
 312 000a 08BD     		pop	{r3, pc}
 313              	.L19:
 140:main.c        ****     }
 314              		.loc 1 140 0
 315 000c FFF7FEFF 		bl	startTidsTagning
 316              	.LVL27:
 142:main.c        ****     case 's':
 317              		.loc 1 142 0
 318 0010 08BD     		pop	{r3, pc}
 319              	.LVL28:
 320              	.L20:
 145:main.c        ****     }
 321              		.loc 1 145 0
 322 0012 FFF7FEFF 		bl	stopTidsTagning
 323              	.LVL29:
 324 0016 08BD     		pop	{r3, pc}
 325              		.cfi_endproc
 326              	.LFE67:
 327              		.size	handleByteReceived, .-handleByteReceived
 328              		.section	.text.ISR_UART_rx_handler,"ax",%progbits
 329              		.align	2
 330              		.global	ISR_UART_rx_handler
 331              		.thumb
 332              		.thumb_func
 333              		.type	ISR_UART_rx_handler, %function
 334              	ISR_UART_rx_handler:
 335              	.LFB66:
 121:main.c        ****     uint8_t bytesToRead = UART_1_GetRxBufferSize();
 336              		.loc 1 121 0
 337              		.cfi_startproc
 338              		@ args = 0, pretend = 0, frame = 0
ARM GAS  C:\Users\jespe\AppData\Local\Temp\cc7jxOIC.s 			page 10


 339              		@ frame_needed = 0, uses_anonymous_args = 0
 340 0000 38B5     		push	{r3, r4, r5, lr}
 341              		.cfi_def_cfa_offset 16
 342              		.cfi_offset 3, -16
 343              		.cfi_offset 4, -12
 344              		.cfi_offset 5, -8
 345              		.cfi_offset 14, -4
 122:main.c        ****     while (bytesToRead > 0)
 346              		.loc 1 122 0
 347 0002 FFF7FEFF 		bl	UART_1_GetRxBufferSize
 348              	.LVL30:
 349 0006 0446     		mov	r4, r0
 350              	.LVL31:
 123:main.c        ****     {
 351              		.loc 1 123 0
 352 0008 09E0     		b	.L23
 353              	.L24:
 354              	.LBB2:
 125:main.c        ****         UART_1_WriteTxData(byteReceived); // echo back
 355              		.loc 1 125 0
 356 000a FFF7FEFF 		bl	UART_1_ReadRxData
 357              	.LVL32:
 358 000e 0546     		mov	r5, r0
 359              	.LVL33:
 126:main.c        **** 
 360              		.loc 1 126 0
 361 0010 FFF7FEFF 		bl	UART_1_WriteTxData
 362              	.LVL34:
 128:main.c        **** 
 363              		.loc 1 128 0
 364 0014 2846     		mov	r0, r5
 365 0016 FFF7FEFF 		bl	handleByteReceived
 366              	.LVL35:
 130:main.c        ****     }
 367              		.loc 1 130 0
 368 001a 013C     		subs	r4, r4, #1
 369              	.LVL36:
 370 001c E4B2     		uxtb	r4, r4
 371              	.LVL37:
 372              	.L23:
 373              	.LBE2:
 123:main.c        ****     {
 374              		.loc 1 123 0
 375 001e 002C     		cmp	r4, #0
 376 0020 F3D1     		bne	.L24
 132:main.c        **** 
 377              		.loc 1 132 0
 378 0022 38BD     		pop	{r3, r4, r5, pc}
 379              		.cfi_endproc
 380              	.LFE66:
 381              		.size	ISR_UART_rx_handler, .-ISR_UART_rx_handler
 382              		.global	time_interval_ms
 383              		.global	time_interval_ticks
 384              		.global	stop_counter
 385              		.global	start_counter
 386              		.global	tick_period_ms
 387              		.global	counter
ARM GAS  C:\Users\jespe\AppData\Local\Temp\cc7jxOIC.s 			page 11


 388              		.comm	InterruptCnt,4,4
 389              		.global	stopCount
 390              		.global	startCount
 391              		.section	.rodata
 392              		.align	2
 393              		.type	tick_period_ms, %object
 394              		.size	tick_period_ms, 4
 395              	tick_period_ms:
 396 0000 0A000000 		.word	10
 397              		.section	.rodata.str1.4,"aMS",%progbits,1
 398              		.align	2
 399              	.LC0:
 400 0000 53746F70 		.ascii	"Stop Watch started\015\012\000"
 400      20576174 
 400      63682073 
 400      74617274 
 400      65640D0A 
 401 0015 000000   		.space	3
 402              	.LC1:
 403 0018 613A2053 		.ascii	"a: Start TidsTagning\015\012\000"
 403      74617274 
 403      20546964 
 403      73546167 
 403      6E696E67 
 404 002f 00       		.space	1
 405              	.LC2:
 406 0030 733A2053 		.ascii	"s: Stop TidsTagning\015\012\000"
 406      746F7020 
 406      54696473 
 406      5461676E 
 406      696E670D 
 407 0046 0000     		.space	2
 408              	.LC3:
 409 0048 436F756E 		.ascii	"Counter: %lu\015\012\000"
 409      7465723A 
 409      20256C75 
 409      0D0A00
 410 0057 00       		.space	1
 411              	.LC4:
 412 0058 54696D65 		.ascii	"Time started\015\012\000"
 412      20737461 
 412      72746564 
 412      0D0A00
 413 0067 00       		.space	1
 414              	.LC5:
 415 0068 54696D65 		.ascii	"Time passed: %u ms \015\012\000"
 415      20706173 
 415      7365643A 
 415      20257520 
 415      6D73200D 
 416              		.bss
 417              		.align	2
 418              		.set	.LANCHOR0,. + 0
 419              		.type	start_counter, %object
 420              		.size	start_counter, 4
 421              	start_counter:
 422 0000 00000000 		.space	4
ARM GAS  C:\Users\jespe\AppData\Local\Temp\cc7jxOIC.s 			page 12


 423              		.type	stop_counter, %object
 424              		.size	stop_counter, 4
 425              	stop_counter:
 426 0004 00000000 		.space	4
 427              		.type	time_interval_ticks, %object
 428              		.size	time_interval_ticks, 4
 429              	time_interval_ticks:
 430 0008 00000000 		.space	4
 431              		.type	time_interval_ms, %object
 432              		.size	time_interval_ms, 4
 433              	time_interval_ms:
 434 000c 00000000 		.space	4
 435              		.type	outputBuffer, %object
 436              		.size	outputBuffer, 256
 437              	outputBuffer:
 438 0010 00000000 		.space	256
 438      00000000 
 438      00000000 
 438      00000000 
 438      00000000 
 439              		.type	startCount, %object
 440              		.size	startCount, 2
 441              	startCount:
 442 0110 0000     		.space	2
 443              		.type	stopCount, %object
 444              		.size	stopCount, 2
 445              	stopCount:
 446 0112 0000     		.space	2
 447              		.type	counter, %object
 448              		.size	counter, 4
 449              	counter:
 450 0114 00000000 		.space	4
 451              		.text
 452              	.Letext0:
 453              		.file 2 "c:\\program files (x86)\\cypress\\psoc creator\\4.2\\psoc creator\\import\\gnu\\arm\\5.4.
 454              		.file 3 "c:\\program files (x86)\\cypress\\psoc creator\\4.2\\psoc creator\\import\\gnu\\arm\\5.4.
 455              		.file 4 "Generated_Source\\PSoC5/cytypes.h"
 456              		.file 5 "Generated_Source\\PSoC5/core_cm3.h"
 457              		.file 6 "Generated_Source\\PSoC5/UART_1.h"
 458              		.file 7 "Generated_Source\\PSoC5/TimerISR.h"
 459              		.file 8 "Generated_Source\\PSoC5/Timer_1.h"
 460              		.file 9 "Generated_Source\\PSoC5/CyLib.h"
 461              		.file 10 "c:\\program files (x86)\\cypress\\psoc creator\\4.2\\psoc creator\\import\\gnu\\arm\\5.4