ARM GAS  C:\Users\magnu\AppData\Local\Temp\ccDHD2Cv.s 			page 1


   1              		.syntax unified
   2              		.cpu cortex-m3
   3              		.fpu softvfp
   4              		.eabi_attribute 20, 1
   5              		.eabi_attribute 21, 1
   6              		.eabi_attribute 23, 3
   7              		.eabi_attribute 24, 1
   8              		.eabi_attribute 25, 1
   9              		.eabi_attribute 26, 1
  10              		.eabi_attribute 30, 1
  11              		.eabi_attribute 34, 1
  12              		.eabi_attribute 18, 4
  13              		.thumb
  14              		.syntax unified
  15              		.file	"FlagMotor.c"
  16              		.text
  17              	.Ltext0:
  18              		.cfi_sections	.debug_frame
  19              		.section	.text.coilA1,"ax",%progbits
  20              		.align	2
  21              		.global	coilA1
  22              		.thumb
  23              		.thumb_func
  24              		.type	coilA1, %function
  25              	coilA1:
  26              	.LFB63:
  27              		.file 1 "FlagMotor.c"
   1:FlagMotor.c   **** /* ========================================
   2:FlagMotor.c   ****  *
   3:FlagMotor.c   ****  * Copyright YOUR COMPANY, THE YEAR
   4:FlagMotor.c   ****  * All Rights Reserved
   5:FlagMotor.c   ****  * UNPUBLISHED, LICENSED SOFTWARE.
   6:FlagMotor.c   ****  *
   7:FlagMotor.c   ****  * CONFIDENTIAL AND PROPRIETARY INFORMATION
   8:FlagMotor.c   ****  * WHICH IS THE PROPERTY OF your company.
   9:FlagMotor.c   ****  *
  10:FlagMotor.c   ****  * ========================================
  11:FlagMotor.c   **** */
  12:FlagMotor.c   **** /* ========================================
  13:FlagMotor.c   ****  *
  14:FlagMotor.c   ****  * Copyright YOUR COMPANY, THE YEAR
  15:FlagMotor.c   ****  * All Rights Reserved
  16:FlagMotor.c   ****  * UNPUBLISHED, LICENSED SOFTWARE.
  17:FlagMotor.c   ****  *
  18:FlagMotor.c   ****  * CONFIDENTIAL AND PROPRIETARY INFORMATION
  19:FlagMotor.c   ****  * WHICH IS THE PROPERTY OF your company.
  20:FlagMotor.c   ****  *
  21:FlagMotor.c   ****  * ========================================
  22:FlagMotor.c   **** */
  23:FlagMotor.c   **** 
  24:FlagMotor.c   **** #include "FlagMotor.h"
  25:FlagMotor.c   **** #define CLOSED_ANGLE 0
  26:FlagMotor.c   **** #define STEPS_PER_DEGREE_half 0.267 // Assuming a standard 200 steps per revolution stepper motor
  27:FlagMotor.c   **** #define STEPS_PER_DEGREE_other 0.133
  28:FlagMotor.c   **** 
  29:FlagMotor.c   **** static char stepcount=0;
  30:FlagMotor.c   **** int currentPosition = CLOSED_ANGLE;
ARM GAS  C:\Users\magnu\AppData\Local\Temp\ccDHD2Cv.s 			page 2


  31:FlagMotor.c   **** 
  32:FlagMotor.c   **** 
  33:FlagMotor.c   **** 
  34:FlagMotor.c   **** void coilA1(void)
  35:FlagMotor.c   **** {
  28              		.loc 1 35 0
  29              		.cfi_startproc
  30              		@ args = 0, pretend = 0, frame = 0
  31              		@ frame_needed = 0, uses_anonymous_args = 0
  32 0000 08B5     		push	{r3, lr}
  33              		.cfi_def_cfa_offset 8
  34              		.cfi_offset 3, -8
  35              		.cfi_offset 14, -4
  36:FlagMotor.c   ****     A2_Write(0);
  36              		.loc 1 36 0
  37 0002 0020     		movs	r0, #0
  38 0004 FFF7FEFF 		bl	A2_Write
  39              	.LVL0:
  37:FlagMotor.c   ****     B1_Write(0);
  40              		.loc 1 37 0
  41 0008 0020     		movs	r0, #0
  42 000a FFF7FEFF 		bl	B1_Write
  43              	.LVL1:
  38:FlagMotor.c   ****     B2_Write(0);
  44              		.loc 1 38 0
  45 000e 0020     		movs	r0, #0
  46 0010 FFF7FEFF 		bl	B2_Write
  47              	.LVL2:
  39:FlagMotor.c   ****     A1_Write(1);
  48              		.loc 1 39 0
  49 0014 0120     		movs	r0, #1
  50 0016 FFF7FEFF 		bl	A1_Write
  51              	.LVL3:
  52 001a 08BD     		pop	{r3, pc}
  53              		.cfi_endproc
  54              	.LFE63:
  55              		.size	coilA1, .-coilA1
  56              		.section	.text.coilA2,"ax",%progbits
  57              		.align	2
  58              		.global	coilA2
  59              		.thumb
  60              		.thumb_func
  61              		.type	coilA2, %function
  62              	coilA2:
  63              	.LFB64:
  40:FlagMotor.c   **** }
  41:FlagMotor.c   **** void coilA2(void)
  42:FlagMotor.c   **** {
  64              		.loc 1 42 0
  65              		.cfi_startproc
  66              		@ args = 0, pretend = 0, frame = 0
  67              		@ frame_needed = 0, uses_anonymous_args = 0
  68 0000 08B5     		push	{r3, lr}
  69              		.cfi_def_cfa_offset 8
  70              		.cfi_offset 3, -8
  71              		.cfi_offset 14, -4
  43:FlagMotor.c   ****     B1_Write(0);
ARM GAS  C:\Users\magnu\AppData\Local\Temp\ccDHD2Cv.s 			page 3


  72              		.loc 1 43 0
  73 0002 0020     		movs	r0, #0
  74 0004 FFF7FEFF 		bl	B1_Write
  75              	.LVL4:
  44:FlagMotor.c   ****     B2_Write(0);
  76              		.loc 1 44 0
  77 0008 0020     		movs	r0, #0
  78 000a FFF7FEFF 		bl	B2_Write
  79              	.LVL5:
  45:FlagMotor.c   ****     A1_Write(0);
  80              		.loc 1 45 0
  81 000e 0020     		movs	r0, #0
  82 0010 FFF7FEFF 		bl	A1_Write
  83              	.LVL6:
  46:FlagMotor.c   ****     A2_Write(1);
  84              		.loc 1 46 0
  85 0014 0120     		movs	r0, #1
  86 0016 FFF7FEFF 		bl	A2_Write
  87              	.LVL7:
  88 001a 08BD     		pop	{r3, pc}
  89              		.cfi_endproc
  90              	.LFE64:
  91              		.size	coilA2, .-coilA2
  92              		.section	.text.coilB1,"ax",%progbits
  93              		.align	2
  94              		.global	coilB1
  95              		.thumb
  96              		.thumb_func
  97              		.type	coilB1, %function
  98              	coilB1:
  99              	.LFB65:
  47:FlagMotor.c   **** }
  48:FlagMotor.c   **** void coilB1(void)
  49:FlagMotor.c   **** {
 100              		.loc 1 49 0
 101              		.cfi_startproc
 102              		@ args = 0, pretend = 0, frame = 0
 103              		@ frame_needed = 0, uses_anonymous_args = 0
 104 0000 08B5     		push	{r3, lr}
 105              		.cfi_def_cfa_offset 8
 106              		.cfi_offset 3, -8
 107              		.cfi_offset 14, -4
  50:FlagMotor.c   ****     A2_Write(0);
 108              		.loc 1 50 0
 109 0002 0020     		movs	r0, #0
 110 0004 FFF7FEFF 		bl	A2_Write
 111              	.LVL8:
  51:FlagMotor.c   ****     B2_Write(0);
 112              		.loc 1 51 0
 113 0008 0020     		movs	r0, #0
 114 000a FFF7FEFF 		bl	B2_Write
 115              	.LVL9:
  52:FlagMotor.c   ****     A1_Write(0);
 116              		.loc 1 52 0
 117 000e 0020     		movs	r0, #0
 118 0010 FFF7FEFF 		bl	A1_Write
 119              	.LVL10:
ARM GAS  C:\Users\magnu\AppData\Local\Temp\ccDHD2Cv.s 			page 4


  53:FlagMotor.c   ****     B1_Write(1);
 120              		.loc 1 53 0
 121 0014 0120     		movs	r0, #1
 122 0016 FFF7FEFF 		bl	B1_Write
 123              	.LVL11:
 124 001a 08BD     		pop	{r3, pc}
 125              		.cfi_endproc
 126              	.LFE65:
 127              		.size	coilB1, .-coilB1
 128              		.section	.text.coilB2,"ax",%progbits
 129              		.align	2
 130              		.global	coilB2
 131              		.thumb
 132              		.thumb_func
 133              		.type	coilB2, %function
 134              	coilB2:
 135              	.LFB66:
  54:FlagMotor.c   **** }
  55:FlagMotor.c   **** void coilB2(void)
  56:FlagMotor.c   **** {
 136              		.loc 1 56 0
 137              		.cfi_startproc
 138              		@ args = 0, pretend = 0, frame = 0
 139              		@ frame_needed = 0, uses_anonymous_args = 0
 140 0000 08B5     		push	{r3, lr}
 141              		.cfi_def_cfa_offset 8
 142              		.cfi_offset 3, -8
 143              		.cfi_offset 14, -4
  57:FlagMotor.c   ****     A2_Write(0);
 144              		.loc 1 57 0
 145 0002 0020     		movs	r0, #0
 146 0004 FFF7FEFF 		bl	A2_Write
 147              	.LVL12:
  58:FlagMotor.c   ****     B1_Write(0);
 148              		.loc 1 58 0
 149 0008 0020     		movs	r0, #0
 150 000a FFF7FEFF 		bl	B1_Write
 151              	.LVL13:
  59:FlagMotor.c   ****     A1_Write(0);
 152              		.loc 1 59 0
 153 000e 0020     		movs	r0, #0
 154 0010 FFF7FEFF 		bl	A1_Write
 155              	.LVL14:
  60:FlagMotor.c   ****     B2_Write(1);
 156              		.loc 1 60 0
 157 0014 0120     		movs	r0, #1
 158 0016 FFF7FEFF 		bl	B2_Write
 159              	.LVL15:
 160 001a 08BD     		pop	{r3, pc}
 161              		.cfi_endproc
 162              	.LFE66:
 163              		.size	coilB2, .-coilB2
 164              		.section	.text.coilA1A2,"ax",%progbits
 165              		.align	2
 166              		.global	coilA1A2
 167              		.thumb
 168              		.thumb_func
ARM GAS  C:\Users\magnu\AppData\Local\Temp\ccDHD2Cv.s 			page 5


 169              		.type	coilA1A2, %function
 170              	coilA1A2:
 171              	.LFB67:
  61:FlagMotor.c   **** }
  62:FlagMotor.c   **** void coilA1A2(void)
  63:FlagMotor.c   **** {
 172              		.loc 1 63 0
 173              		.cfi_startproc
 174              		@ args = 0, pretend = 0, frame = 0
 175              		@ frame_needed = 0, uses_anonymous_args = 0
 176 0000 08B5     		push	{r3, lr}
 177              		.cfi_def_cfa_offset 8
 178              		.cfi_offset 3, -8
 179              		.cfi_offset 14, -4
  64:FlagMotor.c   ****     B1_Write(0);
 180              		.loc 1 64 0
 181 0002 0020     		movs	r0, #0
 182 0004 FFF7FEFF 		bl	B1_Write
 183              	.LVL16:
  65:FlagMotor.c   ****     B2_Write(0);
 184              		.loc 1 65 0
 185 0008 0020     		movs	r0, #0
 186 000a FFF7FEFF 		bl	B2_Write
 187              	.LVL17:
  66:FlagMotor.c   ****     A1_Write(1);
 188              		.loc 1 66 0
 189 000e 0120     		movs	r0, #1
 190 0010 FFF7FEFF 		bl	A1_Write
 191              	.LVL18:
  67:FlagMotor.c   ****     A2_Write(1);
 192              		.loc 1 67 0
 193 0014 0120     		movs	r0, #1
 194 0016 FFF7FEFF 		bl	A2_Write
 195              	.LVL19:
 196 001a 08BD     		pop	{r3, pc}
 197              		.cfi_endproc
 198              	.LFE67:
 199              		.size	coilA1A2, .-coilA1A2
 200              		.section	.text.coilA2B1,"ax",%progbits
 201              		.align	2
 202              		.global	coilA2B1
 203              		.thumb
 204              		.thumb_func
 205              		.type	coilA2B1, %function
 206              	coilA2B1:
 207              	.LFB68:
  68:FlagMotor.c   **** }
  69:FlagMotor.c   **** void coilA2B1(void)
  70:FlagMotor.c   **** {
 208              		.loc 1 70 0
 209              		.cfi_startproc
 210              		@ args = 0, pretend = 0, frame = 0
 211              		@ frame_needed = 0, uses_anonymous_args = 0
 212 0000 08B5     		push	{r3, lr}
 213              		.cfi_def_cfa_offset 8
 214              		.cfi_offset 3, -8
 215              		.cfi_offset 14, -4
ARM GAS  C:\Users\magnu\AppData\Local\Temp\ccDHD2Cv.s 			page 6


  71:FlagMotor.c   ****     A1_Write(0);
 216              		.loc 1 71 0
 217 0002 0020     		movs	r0, #0
 218 0004 FFF7FEFF 		bl	A1_Write
 219              	.LVL20:
  72:FlagMotor.c   ****     B2_Write(0);
 220              		.loc 1 72 0
 221 0008 0020     		movs	r0, #0
 222 000a FFF7FEFF 		bl	B2_Write
 223              	.LVL21:
  73:FlagMotor.c   ****     B1_Write(1);
 224              		.loc 1 73 0
 225 000e 0120     		movs	r0, #1
 226 0010 FFF7FEFF 		bl	B1_Write
 227              	.LVL22:
  74:FlagMotor.c   ****     A2_Write(1);
 228              		.loc 1 74 0
 229 0014 0120     		movs	r0, #1
 230 0016 FFF7FEFF 		bl	A2_Write
 231              	.LVL23:
 232 001a 08BD     		pop	{r3, pc}
 233              		.cfi_endproc
 234              	.LFE68:
 235              		.size	coilA2B1, .-coilA2B1
 236              		.section	.text.coilB1B2,"ax",%progbits
 237              		.align	2
 238              		.global	coilB1B2
 239              		.thumb
 240              		.thumb_func
 241              		.type	coilB1B2, %function
 242              	coilB1B2:
 243              	.LFB69:
  75:FlagMotor.c   **** }
  76:FlagMotor.c   **** void coilB1B2(void)
  77:FlagMotor.c   **** {
 244              		.loc 1 77 0
 245              		.cfi_startproc
 246              		@ args = 0, pretend = 0, frame = 0
 247              		@ frame_needed = 0, uses_anonymous_args = 0
 248 0000 08B5     		push	{r3, lr}
 249              		.cfi_def_cfa_offset 8
 250              		.cfi_offset 3, -8
 251              		.cfi_offset 14, -4
  78:FlagMotor.c   ****     A2_Write(0);
 252              		.loc 1 78 0
 253 0002 0020     		movs	r0, #0
 254 0004 FFF7FEFF 		bl	A2_Write
 255              	.LVL24:
  79:FlagMotor.c   ****     A1_Write(0);
 256              		.loc 1 79 0
 257 0008 0020     		movs	r0, #0
 258 000a FFF7FEFF 		bl	A1_Write
 259              	.LVL25:
  80:FlagMotor.c   ****     B2_Write(1);
 260              		.loc 1 80 0
 261 000e 0120     		movs	r0, #1
 262 0010 FFF7FEFF 		bl	B2_Write
ARM GAS  C:\Users\magnu\AppData\Local\Temp\ccDHD2Cv.s 			page 7


 263              	.LVL26:
  81:FlagMotor.c   ****     B1_Write(1);
 264              		.loc 1 81 0
 265 0014 0120     		movs	r0, #1
 266 0016 FFF7FEFF 		bl	B1_Write
 267              	.LVL27:
 268 001a 08BD     		pop	{r3, pc}
 269              		.cfi_endproc
 270              	.LFE69:
 271              		.size	coilB1B2, .-coilB1B2
 272              		.section	.text.coilB2A1,"ax",%progbits
 273              		.align	2
 274              		.global	coilB2A1
 275              		.thumb
 276              		.thumb_func
 277              		.type	coilB2A1, %function
 278              	coilB2A1:
 279              	.LFB70:
  82:FlagMotor.c   **** }
  83:FlagMotor.c   **** void coilB2A1(void)
  84:FlagMotor.c   **** {
 280              		.loc 1 84 0
 281              		.cfi_startproc
 282              		@ args = 0, pretend = 0, frame = 0
 283              		@ frame_needed = 0, uses_anonymous_args = 0
 284 0000 08B5     		push	{r3, lr}
 285              		.cfi_def_cfa_offset 8
 286              		.cfi_offset 3, -8
 287              		.cfi_offset 14, -4
  85:FlagMotor.c   ****     B1_Write(0);
 288              		.loc 1 85 0
 289 0002 0020     		movs	r0, #0
 290 0004 FFF7FEFF 		bl	B1_Write
 291              	.LVL28:
  86:FlagMotor.c   ****     A2_Write(0);
 292              		.loc 1 86 0
 293 0008 0020     		movs	r0, #0
 294 000a FFF7FEFF 		bl	A2_Write
 295              	.LVL29:
  87:FlagMotor.c   ****     A1_Write(1);
 296              		.loc 1 87 0
 297 000e 0120     		movs	r0, #1
 298 0010 FFF7FEFF 		bl	A1_Write
 299              	.LVL30:
  88:FlagMotor.c   ****     B2_Write(1);
 300              		.loc 1 88 0
 301 0014 0120     		movs	r0, #1
 302 0016 FFF7FEFF 		bl	B2_Write
 303              	.LVL31:
 304 001a 08BD     		pop	{r3, pc}
 305              		.cfi_endproc
 306              	.LFE70:
 307              		.size	coilB2A1, .-coilB2A1
 308              		.section	.text.stopFlagMotor,"ax",%progbits
 309              		.align	2
 310              		.global	stopFlagMotor
 311              		.thumb
ARM GAS  C:\Users\magnu\AppData\Local\Temp\ccDHD2Cv.s 			page 8


 312              		.thumb_func
 313              		.type	stopFlagMotor, %function
 314              	stopFlagMotor:
 315              	.LFB71:
  89:FlagMotor.c   **** }
  90:FlagMotor.c   **** void stopFlagMotor(void)
  91:FlagMotor.c   **** {
 316              		.loc 1 91 0
 317              		.cfi_startproc
 318              		@ args = 0, pretend = 0, frame = 0
 319              		@ frame_needed = 0, uses_anonymous_args = 0
 320 0000 08B5     		push	{r3, lr}
 321              		.cfi_def_cfa_offset 8
 322              		.cfi_offset 3, -8
 323              		.cfi_offset 14, -4
  92:FlagMotor.c   ****     B1_Write(0);
 324              		.loc 1 92 0
 325 0002 0020     		movs	r0, #0
 326 0004 FFF7FEFF 		bl	B1_Write
 327              	.LVL32:
  93:FlagMotor.c   ****     B2_Write(0);
 328              		.loc 1 93 0
 329 0008 0020     		movs	r0, #0
 330 000a FFF7FEFF 		bl	B2_Write
 331              	.LVL33:
  94:FlagMotor.c   ****     A1_Write(0);
 332              		.loc 1 94 0
 333 000e 0020     		movs	r0, #0
 334 0010 FFF7FEFF 		bl	A1_Write
 335              	.LVL34:
  95:FlagMotor.c   ****     A2_Write(0);
 336              		.loc 1 95 0
 337 0014 0020     		movs	r0, #0
 338 0016 FFF7FEFF 		bl	A2_Write
 339              	.LVL35:
 340 001a 08BD     		pop	{r3, pc}
 341              		.cfi_endproc
 342              	.LFE71:
 343              		.size	stopFlagMotor, .-stopFlagMotor
 344              		.section	.text.takestep,"ax",%progbits
 345              		.align	2
 346              		.global	takestep
 347              		.thumb
 348              		.thumb_func
 349              		.type	takestep, %function
 350              	takestep:
 351              	.LFB72:
  96:FlagMotor.c   **** }
  97:FlagMotor.c   **** 
  98:FlagMotor.c   **** 
  99:FlagMotor.c   **** void takestep(char step_mode, char frem)
 100:FlagMotor.c   **** {
 352              		.loc 1 100 0
 353              		.cfi_startproc
 354              		@ args = 0, pretend = 0, frame = 0
 355              		@ frame_needed = 0, uses_anonymous_args = 0
 356              	.LVL36:
ARM GAS  C:\Users\magnu\AppData\Local\Temp\ccDHD2Cv.s 			page 9


 357 0000 08B5     		push	{r3, lr}
 358              		.cfi_def_cfa_offset 8
 359              		.cfi_offset 3, -8
 360              		.cfi_offset 14, -4
 101:FlagMotor.c   **** 	
 102:FlagMotor.c   **** 	 switch(step_mode)
 361              		.loc 1 102 0
 362 0002 6828     		cmp	r0, #104
 363 0004 79D0     		beq	.L21
 364 0006 7728     		cmp	r0, #119
 365 0008 03D0     		beq	.L22
 366 000a 6628     		cmp	r0, #102
 367 000c 40F0FD80 		bne	.L19
 368 0010 39E0     		b	.L23
 369              	.L22:
 103:FlagMotor.c   **** 	 {
 104:FlagMotor.c   **** 		 case 'w':
 105:FlagMotor.c   **** 		 {
 106:FlagMotor.c   **** 			 switch(stepcount)
 370              		.loc 1 106 0
 371 0012 7E4B     		ldr	r3, .L68
 372 0014 1B78     		ldrb	r3, [r3]	@ zero_extendqisi2
 373 0016 072B     		cmp	r3, #7
 374 0018 00F2F780 		bhi	.L19
 375 001c DFE803F0 		tbb	[pc, r3]
 376              	.L25:
 377 0020 04       		.byte	(.L24-.L25)/2
 378 0021 04       		.byte	(.L24-.L25)/2
 379 0022 10       		.byte	(.L26-.L25)/2
 380 0023 10       		.byte	(.L26-.L25)/2
 381 0024 1C       		.byte	(.L27-.L25)/2
 382 0025 1C       		.byte	(.L27-.L25)/2
 383 0026 28       		.byte	(.L28-.L25)/2
 384 0027 28       		.byte	(.L28-.L25)/2
 385              		.p2align 1
 386              	.L24:
 107:FlagMotor.c   **** 			 {
 108:FlagMotor.c   **** 				 case 0:
 109:FlagMotor.c   **** 				 case 1:
 110:FlagMotor.c   **** 				 {
 111:FlagMotor.c   **** 					 
 112:FlagMotor.c   **** 					 
 113:FlagMotor.c   **** 					 if(frem==1)
 387              		.loc 1 113 0
 388 0028 0129     		cmp	r1, #1
 389 002a 02D1     		bne	.L29
 114:FlagMotor.c   **** 						coilA1();
 390              		.loc 1 114 0
 391 002c FFF7FEFF 		bl	coilA1
 392              	.LVL37:
 393 0030 01E0     		b	.L30
 394              	.LVL38:
 395              	.L29:
 115:FlagMotor.c   **** 					 else
 116:FlagMotor.c   **** 						coilB2();
 396              		.loc 1 116 0
 397 0032 FFF7FEFF 		bl	coilB2
ARM GAS  C:\Users\magnu\AppData\Local\Temp\ccDHD2Cv.s 			page 10


 398              	.LVL39:
 399              	.L30:
 117:FlagMotor.c   ****                         
 118:FlagMotor.c   ****                         stepcount+=2;
 400              		.loc 1 118 0
 401 0036 754A     		ldr	r2, .L68
 402 0038 1378     		ldrb	r3, [r2]	@ zero_extendqisi2
 403 003a 0233     		adds	r3, r3, #2
 404 003c 1370     		strb	r3, [r2]
 119:FlagMotor.c   **** 					 
 120:FlagMotor.c   **** 				 }
 121:FlagMotor.c   **** 				 break;
 405              		.loc 1 121 0
 406 003e 08BD     		pop	{r3, pc}
 407              	.LVL40:
 408              	.L26:
 122:FlagMotor.c   **** 				 case 2:
 123:FlagMotor.c   **** 				 case 3:
 124:FlagMotor.c   **** 				 {
 125:FlagMotor.c   **** 					 
 126:FlagMotor.c   **** 					 if(frem==1)
 409              		.loc 1 126 0
 410 0040 0129     		cmp	r1, #1
 411 0042 02D1     		bne	.L31
 127:FlagMotor.c   ****                         coilA2();
 412              		.loc 1 127 0
 413 0044 FFF7FEFF 		bl	coilA2
 414              	.LVL41:
 415 0048 01E0     		b	.L32
 416              	.LVL42:
 417              	.L31:
 128:FlagMotor.c   **** 						
 129:FlagMotor.c   **** 					 else
 130:FlagMotor.c   ****                         coilB1();
 418              		.loc 1 130 0
 419 004a FFF7FEFF 		bl	coilB1
 420              	.LVL43:
 421              	.L32:
 131:FlagMotor.c   **** 						
 132:FlagMotor.c   ****                         stepcount+=2;
 422              		.loc 1 132 0
 423 004e 6F4A     		ldr	r2, .L68
 424 0050 1378     		ldrb	r3, [r2]	@ zero_extendqisi2
 425 0052 0233     		adds	r3, r3, #2
 426 0054 1370     		strb	r3, [r2]
 133:FlagMotor.c   **** 				 }
 134:FlagMotor.c   **** 				 break;
 427              		.loc 1 134 0
 428 0056 08BD     		pop	{r3, pc}
 429              	.LVL44:
 430              	.L27:
 135:FlagMotor.c   **** 				 case 4:
 136:FlagMotor.c   **** 				 case 5:
 137:FlagMotor.c   **** 				 {
 138:FlagMotor.c   **** 					 
 139:FlagMotor.c   **** 					 if(frem==1)
 431              		.loc 1 139 0
ARM GAS  C:\Users\magnu\AppData\Local\Temp\ccDHD2Cv.s 			page 11


 432 0058 0129     		cmp	r1, #1
 433 005a 02D1     		bne	.L33
 140:FlagMotor.c   ****                         coilB1();
 434              		.loc 1 140 0
 435 005c FFF7FEFF 		bl	coilB1
 436              	.LVL45:
 437 0060 01E0     		b	.L34
 438              	.LVL46:
 439              	.L33:
 141:FlagMotor.c   **** 					else
 142:FlagMotor.c   **** 						coilA2();
 440              		.loc 1 142 0
 441 0062 FFF7FEFF 		bl	coilA2
 442              	.LVL47:
 443              	.L34:
 143:FlagMotor.c   ****                         
 144:FlagMotor.c   ****                         stepcount+=2;
 444              		.loc 1 144 0
 445 0066 694A     		ldr	r2, .L68
 446 0068 1378     		ldrb	r3, [r2]	@ zero_extendqisi2
 447 006a 0233     		adds	r3, r3, #2
 448 006c 1370     		strb	r3, [r2]
 145:FlagMotor.c   **** 					 
 146:FlagMotor.c   **** 				 }
 147:FlagMotor.c   **** 				 break;
 449              		.loc 1 147 0
 450 006e 08BD     		pop	{r3, pc}
 451              	.LVL48:
 452              	.L28:
 148:FlagMotor.c   **** 				 case 6:
 149:FlagMotor.c   **** 				 case 7:
 150:FlagMotor.c   **** 				 {
 151:FlagMotor.c   **** 					 
 152:FlagMotor.c   **** 					 if(frem==1)
 453              		.loc 1 152 0
 454 0070 0129     		cmp	r1, #1
 455 0072 02D1     		bne	.L35
 153:FlagMotor.c   ****                         coilB2();
 456              		.loc 1 153 0
 457 0074 FFF7FEFF 		bl	coilB2
 458              	.LVL49:
 459 0078 01E0     		b	.L36
 460              	.LVL50:
 461              	.L35:
 154:FlagMotor.c   **** 						
 155:FlagMotor.c   **** 					 else
 156:FlagMotor.c   **** 						coilA1();
 462              		.loc 1 156 0
 463 007a FFF7FEFF 		bl	coilA1
 464              	.LVL51:
 465              	.L36:
 157:FlagMotor.c   ****                         stepcount=0;
 466              		.loc 1 157 0
 467 007e 0022     		movs	r2, #0
 468 0080 624B     		ldr	r3, .L68
 469 0082 1A70     		strb	r2, [r3]
 158:FlagMotor.c   ****                         
ARM GAS  C:\Users\magnu\AppData\Local\Temp\ccDHD2Cv.s 			page 12


 159:FlagMotor.c   ****                 }
 160:FlagMotor.c   **** 				 break;
 470              		.loc 1 160 0
 471 0084 08BD     		pop	{r3, pc}
 472              	.LVL52:
 473              	.L23:
 161:FlagMotor.c   **** 				 
 162:FlagMotor.c   **** 				 
 163:FlagMotor.c   **** 			 }
 164:FlagMotor.c   **** 		 }
 165:FlagMotor.c   **** 		 break;
 166:FlagMotor.c   **** 		 case 'f' :
 167:FlagMotor.c   **** 		 {
 168:FlagMotor.c   **** 			 switch(stepcount)
 474              		.loc 1 168 0
 475 0086 614B     		ldr	r3, .L68
 476 0088 1B78     		ldrb	r3, [r3]	@ zero_extendqisi2
 477 008a 072B     		cmp	r3, #7
 478 008c 00F2BD80 		bhi	.L19
 479 0090 DFE803F0 		tbb	[pc, r3]
 480              	.L38:
 481 0094 04       		.byte	(.L37-.L38)/2
 482 0095 04       		.byte	(.L37-.L38)/2
 483 0096 10       		.byte	(.L39-.L38)/2
 484 0097 10       		.byte	(.L39-.L38)/2
 485 0098 1C       		.byte	(.L40-.L38)/2
 486 0099 1C       		.byte	(.L40-.L38)/2
 487 009a 28       		.byte	(.L41-.L38)/2
 488 009b 28       		.byte	(.L41-.L38)/2
 489              		.p2align 1
 490              	.L37:
 169:FlagMotor.c   **** 			 {
 170:FlagMotor.c   **** 				 case 0:
 171:FlagMotor.c   **** 				 case 1:
 172:FlagMotor.c   **** 				 {
 173:FlagMotor.c   **** 					 
 174:FlagMotor.c   **** 					 
 175:FlagMotor.c   **** 					 if(frem==1)
 491              		.loc 1 175 0
 492 009c 0129     		cmp	r1, #1
 493 009e 02D1     		bne	.L42
 176:FlagMotor.c   ****                         coilA1A2();
 494              		.loc 1 176 0
 495 00a0 FFF7FEFF 		bl	coilA1A2
 496              	.LVL53:
 497 00a4 01E0     		b	.L43
 498              	.LVL54:
 499              	.L42:
 177:FlagMotor.c   **** 					 else
 178:FlagMotor.c   **** 						coilB2A1();
 500              		.loc 1 178 0
 501 00a6 FFF7FEFF 		bl	coilB2A1
 502              	.LVL55:
 503              	.L43:
 179:FlagMotor.c   ****                         
 180:FlagMotor.c   ****                         stepcount+=2;
 504              		.loc 1 180 0
ARM GAS  C:\Users\magnu\AppData\Local\Temp\ccDHD2Cv.s 			page 13


 505 00aa 584A     		ldr	r2, .L68
 506 00ac 1378     		ldrb	r3, [r2]	@ zero_extendqisi2
 507 00ae 0233     		adds	r3, r3, #2
 508 00b0 1370     		strb	r3, [r2]
 181:FlagMotor.c   **** 					 
 182:FlagMotor.c   **** 				 }
 183:FlagMotor.c   **** 				 break;
 509              		.loc 1 183 0
 510 00b2 08BD     		pop	{r3, pc}
 511              	.LVL56:
 512              	.L39:
 184:FlagMotor.c   **** 				 case 2:
 185:FlagMotor.c   **** 				 case 3:
 186:FlagMotor.c   **** 				 {
 187:FlagMotor.c   **** 					 
 188:FlagMotor.c   **** 					 if(frem==1)
 513              		.loc 1 188 0
 514 00b4 0129     		cmp	r1, #1
 515 00b6 02D1     		bne	.L44
 189:FlagMotor.c   **** 						coilA2B1();
 516              		.loc 1 189 0
 517 00b8 FFF7FEFF 		bl	coilA2B1
 518              	.LVL57:
 519 00bc 01E0     		b	.L45
 520              	.LVL58:
 521              	.L44:
 190:FlagMotor.c   **** 					 else
 191:FlagMotor.c   **** 						coilB1B2();
 522              		.loc 1 191 0
 523 00be FFF7FEFF 		bl	coilB1B2
 524              	.LVL59:
 525              	.L45:
 192:FlagMotor.c   ****                         
 193:FlagMotor.c   ****                     stepcount+=2;
 526              		.loc 1 193 0
 527 00c2 524A     		ldr	r2, .L68
 528 00c4 1378     		ldrb	r3, [r2]	@ zero_extendqisi2
 529 00c6 0233     		adds	r3, r3, #2
 530 00c8 1370     		strb	r3, [r2]
 194:FlagMotor.c   **** 				 }
 195:FlagMotor.c   **** 				 break;
 531              		.loc 1 195 0
 532 00ca 08BD     		pop	{r3, pc}
 533              	.LVL60:
 534              	.L40:
 196:FlagMotor.c   **** 				 case 4:
 197:FlagMotor.c   **** 				 case 5:
 198:FlagMotor.c   **** 				 {
 199:FlagMotor.c   **** 					 
 200:FlagMotor.c   **** 					 if(frem==1)
 535              		.loc 1 200 0
 536 00cc 0129     		cmp	r1, #1
 537 00ce 02D1     		bne	.L46
 201:FlagMotor.c   **** 						coilB1B2();
 538              		.loc 1 201 0
 539 00d0 FFF7FEFF 		bl	coilB1B2
 540              	.LVL61:
ARM GAS  C:\Users\magnu\AppData\Local\Temp\ccDHD2Cv.s 			page 14


 541 00d4 01E0     		b	.L47
 542              	.LVL62:
 543              	.L46:
 202:FlagMotor.c   **** 					 else
 203:FlagMotor.c   **** 						coilA2B1();
 544              		.loc 1 203 0
 545 00d6 FFF7FEFF 		bl	coilA2B1
 546              	.LVL63:
 547              	.L47:
 204:FlagMotor.c   **** 					 
 205:FlagMotor.c   ****                     stepcount+=2;
 548              		.loc 1 205 0
 549 00da 4C4A     		ldr	r2, .L68
 550 00dc 1378     		ldrb	r3, [r2]	@ zero_extendqisi2
 551 00de 0233     		adds	r3, r3, #2
 552 00e0 1370     		strb	r3, [r2]
 206:FlagMotor.c   **** 				 }
 207:FlagMotor.c   **** 				 break;
 553              		.loc 1 207 0
 554 00e2 08BD     		pop	{r3, pc}
 555              	.LVL64:
 556              	.L41:
 208:FlagMotor.c   **** 				 case 6:
 209:FlagMotor.c   **** 				 case 7:
 210:FlagMotor.c   **** 				 {
 211:FlagMotor.c   **** 					 
 212:FlagMotor.c   **** 					 if(frem==1)
 557              		.loc 1 212 0
 558 00e4 0129     		cmp	r1, #1
 559 00e6 02D1     		bne	.L48
 213:FlagMotor.c   **** 						coilB2A1();
 560              		.loc 1 213 0
 561 00e8 FFF7FEFF 		bl	coilB2A1
 562              	.LVL65:
 563 00ec 01E0     		b	.L49
 564              	.LVL66:
 565              	.L48:
 214:FlagMotor.c   **** 					 else
 215:FlagMotor.c   **** 					    coilA1A2();
 566              		.loc 1 215 0
 567 00ee FFF7FEFF 		bl	coilA1A2
 568              	.LVL67:
 569              	.L49:
 216:FlagMotor.c   **** 				 }
 217:FlagMotor.c   ****                 
 218:FlagMotor.c   ****                 stepcount=0;
 570              		.loc 1 218 0
 571 00f2 0022     		movs	r2, #0
 572 00f4 454B     		ldr	r3, .L68
 573 00f6 1A70     		strb	r2, [r3]
 219:FlagMotor.c   **** 				 break;
 574              		.loc 1 219 0
 575 00f8 08BD     		pop	{r3, pc}
 576              	.LVL68:
 577              	.L21:
 220:FlagMotor.c   **** 				 
 221:FlagMotor.c   **** 				 
ARM GAS  C:\Users\magnu\AppData\Local\Temp\ccDHD2Cv.s 			page 15


 222:FlagMotor.c   **** 			 }
 223:FlagMotor.c   **** 		 }
 224:FlagMotor.c   **** 		 break;
 225:FlagMotor.c   **** 		 case 'h' :
 226:FlagMotor.c   **** 		 {
 227:FlagMotor.c   **** 			 switch(stepcount)
 578              		.loc 1 227 0
 579 00fa 444B     		ldr	r3, .L68
 580 00fc 1B78     		ldrb	r3, [r3]	@ zero_extendqisi2
 581 00fe 072B     		cmp	r3, #7
 582 0100 00F28380 		bhi	.L19
 583 0104 DFE803F0 		tbb	[pc, r3]
 584              	.L51:
 585 0108 04       		.byte	(.L50-.L51)/2
 586 0109 14       		.byte	(.L52-.L51)/2
 587 010a 24       		.byte	(.L53-.L51)/2
 588 010b 34       		.byte	(.L54-.L51)/2
 589 010c 44       		.byte	(.L55-.L51)/2
 590 010d 54       		.byte	(.L56-.L51)/2
 591 010e 64       		.byte	(.L57-.L51)/2
 592 010f 74       		.byte	(.L58-.L51)/2
 593              		.p2align 1
 594              	.L50:
 228:FlagMotor.c   **** 			 {
 229:FlagMotor.c   **** 				 case 0:
 230:FlagMotor.c   **** 				 {
 231:FlagMotor.c   **** 					 
 232:FlagMotor.c   **** 					 
 233:FlagMotor.c   **** 					 if(frem==1)
 595              		.loc 1 233 0
 596 0110 0129     		cmp	r1, #1
 597 0112 06D1     		bne	.L59
 234:FlagMotor.c   ****                     {coilA1();
 598              		.loc 1 234 0
 599 0114 FFF7FEFF 		bl	coilA1
 600              	.LVL69:
 235:FlagMotor.c   ****                     stepcount++;}
 601              		.loc 1 235 0
 602 0118 3C4A     		ldr	r2, .L68
 603 011a 1378     		ldrb	r3, [r2]	@ zero_extendqisi2
 604 011c 0133     		adds	r3, r3, #1
 605 011e 1370     		strb	r3, [r2]
 606 0120 08BD     		pop	{r3, pc}
 607              	.LVL70:
 608              	.L59:
 236:FlagMotor.c   **** 					 else
 237:FlagMotor.c   ****                     {coilB2A1();
 609              		.loc 1 237 0
 610 0122 FFF7FEFF 		bl	coilB2A1
 611              	.LVL71:
 238:FlagMotor.c   ****                     stepcount++;}
 612              		.loc 1 238 0
 613 0126 394A     		ldr	r2, .L68
 614 0128 1378     		ldrb	r3, [r2]	@ zero_extendqisi2
 615 012a 0133     		adds	r3, r3, #1
 616 012c 1370     		strb	r3, [r2]
 617 012e 08BD     		pop	{r3, pc}
ARM GAS  C:\Users\magnu\AppData\Local\Temp\ccDHD2Cv.s 			page 16


 618              	.LVL72:
 619              	.L52:
 239:FlagMotor.c   ****                     
 240:FlagMotor.c   **** 					 
 241:FlagMotor.c   **** 				 }
 242:FlagMotor.c   **** 				 break;
 243:FlagMotor.c   **** 				 case 1:
 244:FlagMotor.c   **** 				 {
 245:FlagMotor.c   **** 					 
 246:FlagMotor.c   **** 					 
 247:FlagMotor.c   **** 					 if(frem==1)
 620              		.loc 1 247 0
 621 0130 0129     		cmp	r1, #1
 622 0132 06D1     		bne	.L60
 248:FlagMotor.c   ****                     {coilA1A2();
 623              		.loc 1 248 0
 624 0134 FFF7FEFF 		bl	coilA1A2
 625              	.LVL73:
 249:FlagMotor.c   ****                     stepcount++;}
 626              		.loc 1 249 0
 627 0138 344A     		ldr	r2, .L68
 628 013a 1378     		ldrb	r3, [r2]	@ zero_extendqisi2
 629 013c 0133     		adds	r3, r3, #1
 630 013e 1370     		strb	r3, [r2]
 631 0140 08BD     		pop	{r3, pc}
 632              	.LVL74:
 633              	.L60:
 250:FlagMotor.c   **** 					 else
 251:FlagMotor.c   ****                     {coilB2();
 634              		.loc 1 251 0
 635 0142 FFF7FEFF 		bl	coilB2
 636              	.LVL75:
 252:FlagMotor.c   ****                     stepcount++;}
 637              		.loc 1 252 0
 638 0146 314A     		ldr	r2, .L68
 639 0148 1378     		ldrb	r3, [r2]	@ zero_extendqisi2
 640 014a 0133     		adds	r3, r3, #1
 641 014c 1370     		strb	r3, [r2]
 642 014e 08BD     		pop	{r3, pc}
 643              	.LVL76:
 644              	.L53:
 253:FlagMotor.c   **** 					 
 254:FlagMotor.c   ****                     
 255:FlagMotor.c   **** 				 }
 256:FlagMotor.c   **** 				 break;
 257:FlagMotor.c   **** 				 case 2:
 258:FlagMotor.c   **** 				 {
 259:FlagMotor.c   **** 					 
 260:FlagMotor.c   **** 					 if(frem==1)
 645              		.loc 1 260 0
 646 0150 0129     		cmp	r1, #1
 647 0152 06D1     		bne	.L61
 261:FlagMotor.c   ****                     {coilA2();
 648              		.loc 1 261 0
 649 0154 FFF7FEFF 		bl	coilA2
 650              	.LVL77:
 262:FlagMotor.c   ****                     stepcount++;}
ARM GAS  C:\Users\magnu\AppData\Local\Temp\ccDHD2Cv.s 			page 17


 651              		.loc 1 262 0
 652 0158 2C4A     		ldr	r2, .L68
 653 015a 1378     		ldrb	r3, [r2]	@ zero_extendqisi2
 654 015c 0133     		adds	r3, r3, #1
 655 015e 1370     		strb	r3, [r2]
 656 0160 08BD     		pop	{r3, pc}
 657              	.LVL78:
 658              	.L61:
 263:FlagMotor.c   **** 					 else
 264:FlagMotor.c   ****                     {coilB1B2();
 659              		.loc 1 264 0
 660 0162 FFF7FEFF 		bl	coilB1B2
 661              	.LVL79:
 265:FlagMotor.c   ****                     stepcount++;}
 662              		.loc 1 265 0
 663 0166 294A     		ldr	r2, .L68
 664 0168 1378     		ldrb	r3, [r2]	@ zero_extendqisi2
 665 016a 0133     		adds	r3, r3, #1
 666 016c 1370     		strb	r3, [r2]
 667 016e 08BD     		pop	{r3, pc}
 668              	.LVL80:
 669              	.L54:
 266:FlagMotor.c   ****                         
 267:FlagMotor.c   ****                      
 268:FlagMotor.c   **** 				 }
 269:FlagMotor.c   **** 				 break;
 270:FlagMotor.c   **** 				 case 3:
 271:FlagMotor.c   **** 				 {
 272:FlagMotor.c   **** 					 
 273:FlagMotor.c   **** 					 if(frem==1)
 670              		.loc 1 273 0
 671 0170 0129     		cmp	r1, #1
 672 0172 06D1     		bne	.L62
 274:FlagMotor.c   ****                     {coilA2B1();
 673              		.loc 1 274 0
 674 0174 FFF7FEFF 		bl	coilA2B1
 675              	.LVL81:
 275:FlagMotor.c   ****                     stepcount++;}
 676              		.loc 1 275 0
 677 0178 244A     		ldr	r2, .L68
 678 017a 1378     		ldrb	r3, [r2]	@ zero_extendqisi2
 679 017c 0133     		adds	r3, r3, #1
 680 017e 1370     		strb	r3, [r2]
 681 0180 08BD     		pop	{r3, pc}
 682              	.LVL82:
 683              	.L62:
 276:FlagMotor.c   **** 					 else
 277:FlagMotor.c   ****                     {coilB1();
 684              		.loc 1 277 0
 685 0182 FFF7FEFF 		bl	coilB1
 686              	.LVL83:
 278:FlagMotor.c   ****                     stepcount++;}
 687              		.loc 1 278 0
 688 0186 214A     		ldr	r2, .L68
 689 0188 1378     		ldrb	r3, [r2]	@ zero_extendqisi2
 690 018a 0133     		adds	r3, r3, #1
 691 018c 1370     		strb	r3, [r2]
ARM GAS  C:\Users\magnu\AppData\Local\Temp\ccDHD2Cv.s 			page 18


 692 018e 08BD     		pop	{r3, pc}
 693              	.LVL84:
 694              	.L55:
 279:FlagMotor.c   ****                         
 280:FlagMotor.c   ****                     
 281:FlagMotor.c   **** 				 }
 282:FlagMotor.c   **** 				 break;
 283:FlagMotor.c   **** 				 case 4:
 284:FlagMotor.c   **** 				 {
 285:FlagMotor.c   **** 					 
 286:FlagMotor.c   **** 					 if(frem==1)
 695              		.loc 1 286 0
 696 0190 0129     		cmp	r1, #1
 697 0192 06D1     		bne	.L63
 287:FlagMotor.c   ****                     {coilB1();
 698              		.loc 1 287 0
 699 0194 FFF7FEFF 		bl	coilB1
 700              	.LVL85:
 288:FlagMotor.c   ****                     stepcount++;}
 701              		.loc 1 288 0
 702 0198 1C4A     		ldr	r2, .L68
 703 019a 1378     		ldrb	r3, [r2]	@ zero_extendqisi2
 704 019c 0133     		adds	r3, r3, #1
 705 019e 1370     		strb	r3, [r2]
 706 01a0 08BD     		pop	{r3, pc}
 707              	.LVL86:
 708              	.L63:
 289:FlagMotor.c   **** 					 else
 290:FlagMotor.c   ****                     {coilA2B1();
 709              		.loc 1 290 0
 710 01a2 FFF7FEFF 		bl	coilA2B1
 711              	.LVL87:
 291:FlagMotor.c   ****                     stepcount++;}
 712              		.loc 1 291 0
 713 01a6 194A     		ldr	r2, .L68
 714 01a8 1378     		ldrb	r3, [r2]	@ zero_extendqisi2
 715 01aa 0133     		adds	r3, r3, #1
 716 01ac 1370     		strb	r3, [r2]
 717 01ae 08BD     		pop	{r3, pc}
 718              	.LVL88:
 719              	.L56:
 292:FlagMotor.c   ****                     
 293:FlagMotor.c   **** 					 
 294:FlagMotor.c   **** 				 }
 295:FlagMotor.c   **** 				 break;
 296:FlagMotor.c   **** 				 case 5:
 297:FlagMotor.c   **** 				 {
 298:FlagMotor.c   **** 					 
 299:FlagMotor.c   **** 					 if(frem==1)
 720              		.loc 1 299 0
 721 01b0 0129     		cmp	r1, #1
 722 01b2 06D1     		bne	.L64
 300:FlagMotor.c   ****                     {coilB1B2();
 723              		.loc 1 300 0
 724 01b4 FFF7FEFF 		bl	coilB1B2
 725              	.LVL89:
 301:FlagMotor.c   ****                     stepcount++;}
ARM GAS  C:\Users\magnu\AppData\Local\Temp\ccDHD2Cv.s 			page 19


 726              		.loc 1 301 0
 727 01b8 144A     		ldr	r2, .L68
 728 01ba 1378     		ldrb	r3, [r2]	@ zero_extendqisi2
 729 01bc 0133     		adds	r3, r3, #1
 730 01be 1370     		strb	r3, [r2]
 731 01c0 08BD     		pop	{r3, pc}
 732              	.LVL90:
 733              	.L64:
 302:FlagMotor.c   **** 					 else
 303:FlagMotor.c   ****                     {coilA2();
 734              		.loc 1 303 0
 735 01c2 FFF7FEFF 		bl	coilA2
 736              	.LVL91:
 304:FlagMotor.c   ****                     stepcount++;}
 737              		.loc 1 304 0
 738 01c6 114A     		ldr	r2, .L68
 739 01c8 1378     		ldrb	r3, [r2]	@ zero_extendqisi2
 740 01ca 0133     		adds	r3, r3, #1
 741 01cc 1370     		strb	r3, [r2]
 742 01ce 08BD     		pop	{r3, pc}
 743              	.LVL92:
 744              	.L57:
 305:FlagMotor.c   ****                     
 306:FlagMotor.c   **** 				 }
 307:FlagMotor.c   **** 				 break;
 308:FlagMotor.c   **** 				 case 6:
 309:FlagMotor.c   **** 				 {
 310:FlagMotor.c   **** 					 
 311:FlagMotor.c   **** 					 if(frem==1)
 745              		.loc 1 311 0
 746 01d0 0129     		cmp	r1, #1
 747 01d2 06D1     		bne	.L65
 312:FlagMotor.c   ****                     {coilB2();
 748              		.loc 1 312 0
 749 01d4 FFF7FEFF 		bl	coilB2
 750              	.LVL93:
 313:FlagMotor.c   ****                     stepcount++;}
 751              		.loc 1 313 0
 752 01d8 0C4A     		ldr	r2, .L68
 753 01da 1378     		ldrb	r3, [r2]	@ zero_extendqisi2
 754 01dc 0133     		adds	r3, r3, #1
 755 01de 1370     		strb	r3, [r2]
 756 01e0 08BD     		pop	{r3, pc}
 757              	.LVL94:
 758              	.L65:
 314:FlagMotor.c   **** 					 else
 315:FlagMotor.c   ****                     {coilA1A2();
 759              		.loc 1 315 0
 760 01e2 FFF7FEFF 		bl	coilA1A2
 761              	.LVL95:
 316:FlagMotor.c   ****                     stepcount++;}
 762              		.loc 1 316 0
 763 01e6 094A     		ldr	r2, .L68
 764 01e8 1378     		ldrb	r3, [r2]	@ zero_extendqisi2
 765 01ea 0133     		adds	r3, r3, #1
 766 01ec 1370     		strb	r3, [r2]
 767 01ee 08BD     		pop	{r3, pc}
ARM GAS  C:\Users\magnu\AppData\Local\Temp\ccDHD2Cv.s 			page 20


 768              	.LVL96:
 769              	.L58:
 317:FlagMotor.c   ****                         
 318:FlagMotor.c   ****                     
 319:FlagMotor.c   **** 				 }
 320:FlagMotor.c   **** 				 break;
 321:FlagMotor.c   **** 				 case 7:
 322:FlagMotor.c   **** 				 {
 323:FlagMotor.c   **** 					 
 324:FlagMotor.c   **** 					 if(frem==1)
 770              		.loc 1 324 0
 771 01f0 0129     		cmp	r1, #1
 772 01f2 05D1     		bne	.L66
 325:FlagMotor.c   ****                     {coilB2A1();
 773              		.loc 1 325 0
 774 01f4 FFF7FEFF 		bl	coilB2A1
 775              	.LVL97:
 326:FlagMotor.c   ****                     stepcount=0;}
 776              		.loc 1 326 0
 777 01f8 0022     		movs	r2, #0
 778 01fa 044B     		ldr	r3, .L68
 779 01fc 1A70     		strb	r2, [r3]
 780 01fe 08BD     		pop	{r3, pc}
 781              	.LVL98:
 782              	.L66:
 327:FlagMotor.c   **** 					 else
 328:FlagMotor.c   ****                     {coilA1();
 783              		.loc 1 328 0
 784 0200 FFF7FEFF 		bl	coilA1
 785              	.LVL99:
 329:FlagMotor.c   ****                     stepcount=0;}
 786              		.loc 1 329 0
 787 0204 0022     		movs	r2, #0
 788 0206 014B     		ldr	r3, .L68
 789 0208 1A70     		strb	r2, [r3]
 790              	.L19:
 791 020a 08BD     		pop	{r3, pc}
 792              	.L69:
 793              		.align	2
 794              	.L68:
 795 020c 00000000 		.word	.LANCHOR0
 796              		.cfi_endproc
 797              	.LFE72:
 798              		.size	takestep, .-takestep
 799              		.section	.text.numberOfSteps,"ax",%progbits
 800              		.align	2
 801              		.global	numberOfSteps
 802              		.thumb
 803              		.thumb_func
 804              		.type	numberOfSteps, %function
 805              	numberOfSteps:
 806              	.LFB73:
 330:FlagMotor.c   ****                    
 331:FlagMotor.c   **** 				 }
 332:FlagMotor.c   **** 				 break;
 333:FlagMotor.c   **** 				 
 334:FlagMotor.c   **** 				 
ARM GAS  C:\Users\magnu\AppData\Local\Temp\ccDHD2Cv.s 			page 21


 335:FlagMotor.c   **** 			 }
 336:FlagMotor.c   **** 		 }
 337:FlagMotor.c   **** 		 break;
 338:FlagMotor.c   **** 		 default :
 339:FlagMotor.c   **** 		 {
 340:FlagMotor.c   **** 			 // nothing
 341:FlagMotor.c   **** 		 }
 342:FlagMotor.c   **** 		 break;
 343:FlagMotor.c   **** 	 }
 344:FlagMotor.c   **** }
 345:FlagMotor.c   **** 
 346:FlagMotor.c   **** void numberOfSteps(int steps, char mode)
 347:FlagMotor.c   **** {
 807              		.loc 1 347 0
 808              		.cfi_startproc
 809              		@ args = 0, pretend = 0, frame = 0
 810              		@ frame_needed = 0, uses_anonymous_args = 0
 811              	.LVL100:
 812 0000 70B5     		push	{r4, r5, r6, lr}
 813              		.cfi_def_cfa_offset 16
 814              		.cfi_offset 4, -16
 815              		.cfi_offset 5, -12
 816              		.cfi_offset 6, -8
 817              		.cfi_offset 14, -4
 818 0002 0E46     		mov	r6, r1
 819              	.LVL101:
 348:FlagMotor.c   **** 	char step_mode = mode;
 349:FlagMotor.c   **** 	if(steps<0)
 820              		.loc 1 349 0
 821 0004 051E     		subs	r5, r0, #0
 822 0006 0CDA     		bge	.L72
 823 0008 08E0     		b	.L76
 824              	.LVL102:
 825              	.L73:
 826              	.LBB2:
 350:FlagMotor.c   **** 	for(int i=0; i>steps; i--)// tager antal steps
 351:FlagMotor.c   **** 	{
 352:FlagMotor.c   **** 		
 353:FlagMotor.c   **** 			takestep(step_mode, 0);
 827              		.loc 1 353 0 discriminator 3
 828 000a 0021     		movs	r1, #0
 829 000c 3046     		mov	r0, r6
 830 000e FFF7FEFF 		bl	takestep
 831              	.LVL103:
 354:FlagMotor.c   **** 		
 355:FlagMotor.c   **** 		
 356:FlagMotor.c   **** 			 CyDelay(5);
 832              		.loc 1 356 0 discriminator 3
 833 0012 0520     		movs	r0, #5
 834 0014 FFF7FEFF 		bl	CyDelay
 835              	.LVL104:
 350:FlagMotor.c   **** 	for(int i=0; i>steps; i--)// tager antal steps
 836              		.loc 1 350 0 discriminator 3
 837 0018 013C     		subs	r4, r4, #1
 838              	.LVL105:
 839 001a 00E0     		b	.L71
 840              	.LVL106:
ARM GAS  C:\Users\magnu\AppData\Local\Temp\ccDHD2Cv.s 			page 22


 841              	.L76:
 842              	.LBE2:
 843 001c 0024     		movs	r4, #0
 844              	.LVL107:
 845              	.L71:
 846              	.LBB3:
 350:FlagMotor.c   **** 	for(int i=0; i>steps; i--)// tager antal steps
 847              		.loc 1 350 0 is_stmt 0 discriminator 1
 848 001e AC42     		cmp	r4, r5
 849 0020 F3DC     		bgt	.L73
 850              	.LVL108:
 851              	.L72:
 852              	.LBE3:
 853 0022 0024     		movs	r4, #0
 854 0024 07E0     		b	.L74
 855              	.LVL109:
 856              	.L75:
 857              	.LBB4:
 357:FlagMotor.c   **** 		
 358:FlagMotor.c   **** 	}
 359:FlagMotor.c   **** 	
 360:FlagMotor.c   **** 	 for(int i=0; i<steps; i++)// tager antal steps
 361:FlagMotor.c   **** 	 {
 362:FlagMotor.c   **** 		 
 363:FlagMotor.c   **** 		 {takestep(step_mode, 1);}
 858              		.loc 1 363 0 is_stmt 1 discriminator 3
 859 0026 0121     		movs	r1, #1
 860 0028 3046     		mov	r0, r6
 861 002a FFF7FEFF 		bl	takestep
 862              	.LVL110:
 364:FlagMotor.c   **** 		 
 365:FlagMotor.c   **** 		  CyDelay(5);
 863              		.loc 1 365 0 discriminator 3
 864 002e 0520     		movs	r0, #5
 865 0030 FFF7FEFF 		bl	CyDelay
 866              	.LVL111:
 360:FlagMotor.c   **** 	 {
 867              		.loc 1 360 0 discriminator 3
 868 0034 0134     		adds	r4, r4, #1
 869              	.LVL112:
 870              	.L74:
 360:FlagMotor.c   **** 	 {
 871              		.loc 1 360 0 is_stmt 0 discriminator 1
 872 0036 AC42     		cmp	r4, r5
 873 0038 F5DB     		blt	.L75
 874              	.LBE4:
 366:FlagMotor.c   **** 		 
 367:FlagMotor.c   **** 	 }
 368:FlagMotor.c   **** 	 
 369:FlagMotor.c   **** }
 875              		.loc 1 369 0 is_stmt 1
 876 003a 70BD     		pop	{r4, r5, r6, pc}
 877              		.cfi_endproc
 878              	.LFE73:
 879              		.size	numberOfSteps, .-numberOfSteps
 880              		.global	__aeabi_i2d
 881              		.global	__aeabi_dmul
ARM GAS  C:\Users\magnu\AppData\Local\Temp\ccDHD2Cv.s 			page 23


 882              		.global	__aeabi_d2iz
 883              		.section	.text.stepperdriver_rotateTo,"ax",%progbits
 884              		.align	2
 885              		.global	stepperdriver_rotateTo
 886              		.thumb
 887              		.thumb_func
 888              		.type	stepperdriver_rotateTo, %function
 889              	stepperdriver_rotateTo:
 890              	.LFB75:
 370:FlagMotor.c   **** 
 371:FlagMotor.c   **** 
 372:FlagMotor.c   **** 
 373:FlagMotor.c   **** void homeStepper(char mode){
 374:FlagMotor.c   ****      if(mode == 'h')
 375:FlagMotor.c   ****     numberOfSteps(-96, mode);
 376:FlagMotor.c   ****     else
 377:FlagMotor.c   ****     numberOfSteps(-48, mode);
 378:FlagMotor.c   ****     currentPosition=0;
 379:FlagMotor.c   ****     stepperdriver_rotateTo(0, mode);
 380:FlagMotor.c   ****     
 381:FlagMotor.c   **** }
 382:FlagMotor.c   **** 
 383:FlagMotor.c   **** 
 384:FlagMotor.c   **** void stepperdriver_rotateTo(int targetDegrees, char mode) {
 891              		.loc 1 384 0
 892              		.cfi_startproc
 893              		@ args = 0, pretend = 0, frame = 0
 894              		@ frame_needed = 0, uses_anonymous_args = 0
 895              	.LVL113:
 896 0000 38B5     		push	{r3, r4, r5, lr}
 897              		.cfi_def_cfa_offset 16
 898              		.cfi_offset 3, -16
 899              		.cfi_offset 4, -12
 900              		.cfi_offset 5, -8
 901              		.cfi_offset 14, -4
 902 0002 0446     		mov	r4, r0
 903 0004 0D46     		mov	r5, r1
 385:FlagMotor.c   **** 	
 386:FlagMotor.c   **** 	
 387:FlagMotor.c   ****     if(mode == 'h')
 904              		.loc 1 387 0
 905 0006 6829     		cmp	r1, #104
 906 0008 13D1     		bne	.L79
 388:FlagMotor.c   ****     {
 389:FlagMotor.c   ****     	if(targetDegrees!=currentPosition)
 907              		.loc 1 389 0
 908 000a 194B     		ldr	r3, .L82+16
 909 000c 5868     		ldr	r0, [r3, #4]
 910              	.LVL114:
 911 000e A042     		cmp	r0, r4
 912 0010 22D0     		beq	.L78
 913              	.LBB5:
 390:FlagMotor.c   **** 		{
 391:FlagMotor.c   **** 			int stepsToTake = (targetDegrees - currentPosition) * STEPS_PER_DEGREE_half;
 914              		.loc 1 391 0
 915 0012 201A     		subs	r0, r4, r0
 916 0014 FFF7FEFF 		bl	__aeabi_i2d
ARM GAS  C:\Users\magnu\AppData\Local\Temp\ccDHD2Cv.s 			page 24


 917              	.LVL115:
 918 0018 11A3     		adr	r3, .L82
 919 001a D3E90023 		ldrd	r2, [r3]
 920 001e FFF7FEFF 		bl	__aeabi_dmul
 921              	.LVL116:
 922 0022 FFF7FEFF 		bl	__aeabi_d2iz
 923              	.LVL117:
 392:FlagMotor.c   **** 
 393:FlagMotor.c   **** 			currentPosition = targetDegrees;
 924              		.loc 1 393 0
 925 0026 124B     		ldr	r3, .L82+16
 926 0028 5C60     		str	r4, [r3, #4]
 394:FlagMotor.c   **** 
 395:FlagMotor.c   **** 			numberOfSteps(stepsToTake, mode);
 927              		.loc 1 395 0
 928 002a 2946     		mov	r1, r5
 929 002c FFF7FEFF 		bl	numberOfSteps
 930              	.LVL118:
 931 0030 38BD     		pop	{r3, r4, r5, pc}
 932              	.LVL119:
 933              	.L79:
 934              	.LBE5:
 396:FlagMotor.c   **** 		}
 397:FlagMotor.c   ****         }
 398:FlagMotor.c   ****     else
 399:FlagMotor.c   ****         {
 400:FlagMotor.c   **** 		if(targetDegrees!=currentPosition)
 935              		.loc 1 400 0
 936 0032 0F4B     		ldr	r3, .L82+16
 937 0034 5868     		ldr	r0, [r3, #4]
 938              	.LVL120:
 939 0036 8442     		cmp	r4, r0
 940 0038 0ED0     		beq	.L78
 941              	.LBB6:
 401:FlagMotor.c   **** 		{
 402:FlagMotor.c   **** 			int stepsToTake = (targetDegrees - currentPosition) * STEPS_PER_DEGREE_other;
 942              		.loc 1 402 0
 943 003a 201A     		subs	r0, r4, r0
 944 003c FFF7FEFF 		bl	__aeabi_i2d
 945              	.LVL121:
 946 0040 09A3     		adr	r3, .L82+8
 947 0042 D3E90023 		ldrd	r2, [r3]
 948 0046 FFF7FEFF 		bl	__aeabi_dmul
 949              	.LVL122:
 950 004a FFF7FEFF 		bl	__aeabi_d2iz
 951              	.LVL123:
 403:FlagMotor.c   **** 
 404:FlagMotor.c   **** 			currentPosition = targetDegrees;
 952              		.loc 1 404 0
 953 004e 084B     		ldr	r3, .L82+16
 954 0050 5C60     		str	r4, [r3, #4]
 405:FlagMotor.c   **** 
 406:FlagMotor.c   **** 			numberOfSteps(stepsToTake, mode);
 955              		.loc 1 406 0
 956 0052 2946     		mov	r1, r5
 957 0054 FFF7FEFF 		bl	numberOfSteps
 958              	.LVL124:
ARM GAS  C:\Users\magnu\AppData\Local\Temp\ccDHD2Cv.s 			page 25


 959              	.L78:
 960 0058 38BD     		pop	{r3, r4, r5, pc}
 961              	.LVL125:
 962              	.L83:
 963 005a 00BFAFF3 		.align	3
 963      0080
 964              	.L82:
 965 0060 4A0C022B 		.word	721554506
 966 0064 8716D13F 		.word	1070667399
 967 0068 A01A2FDD 		.word	-584115552
 968 006c 2406C13F 		.word	1069614628
 969 0070 00000000 		.word	.LANCHOR0
 970              	.LBE6:
 971              		.cfi_endproc
 972              	.LFE75:
 973              		.size	stepperdriver_rotateTo, .-stepperdriver_rotateTo
 974              		.section	.text.homeStepper,"ax",%progbits
 975              		.align	2
 976              		.global	homeStepper
 977              		.thumb
 978              		.thumb_func
 979              		.type	homeStepper, %function
 980              	homeStepper:
 981              	.LFB74:
 373:FlagMotor.c   ****      if(mode == 'h')
 982              		.loc 1 373 0
 983              		.cfi_startproc
 984              		@ args = 0, pretend = 0, frame = 0
 985              		@ frame_needed = 0, uses_anonymous_args = 0
 986              	.LVL126:
 987 0000 10B5     		push	{r4, lr}
 988              		.cfi_def_cfa_offset 8
 989              		.cfi_offset 4, -8
 990              		.cfi_offset 14, -4
 991 0002 0446     		mov	r4, r0
 374:FlagMotor.c   ****     numberOfSteps(-96, mode);
 992              		.loc 1 374 0
 993 0004 6828     		cmp	r0, #104
 994 0006 05D1     		bne	.L85
 375:FlagMotor.c   ****     else
 995              		.loc 1 375 0
 996 0008 0146     		mov	r1, r0
 997 000a 6FF05F00 		mvn	r0, #95
 998              	.LVL127:
 999 000e FFF7FEFF 		bl	numberOfSteps
 1000              	.LVL128:
 1001 0012 04E0     		b	.L86
 1002              	.LVL129:
 1003              	.L85:
 377:FlagMotor.c   ****     currentPosition=0;
 1004              		.loc 1 377 0
 1005 0014 0146     		mov	r1, r0
 1006 0016 6FF02F00 		mvn	r0, #47
 1007              	.LVL130:
 1008 001a FFF7FEFF 		bl	numberOfSteps
 1009              	.LVL131:
 1010              	.L86:
ARM GAS  C:\Users\magnu\AppData\Local\Temp\ccDHD2Cv.s 			page 26


 378:FlagMotor.c   ****     stepperdriver_rotateTo(0, mode);
 1011              		.loc 1 378 0
 1012 001e 0020     		movs	r0, #0
 1013 0020 024B     		ldr	r3, .L88
 1014 0022 5860     		str	r0, [r3, #4]
 379:FlagMotor.c   ****     
 1015              		.loc 1 379 0
 1016 0024 2146     		mov	r1, r4
 1017 0026 FFF7FEFF 		bl	stepperdriver_rotateTo
 1018              	.LVL132:
 1019 002a 10BD     		pop	{r4, pc}
 1020              	.L89:
 1021              		.align	2
 1022              	.L88:
 1023 002c 00000000 		.word	.LANCHOR0
 1024              		.cfi_endproc
 1025              	.LFE74:
 1026              		.size	homeStepper, .-homeStepper
 1027              		.global	currentPosition
 1028              		.bss
 1029              		.align	2
 1030              		.set	.LANCHOR0,. + 0
 1031              		.type	stepcount, %object
 1032              		.size	stepcount, 1
 1033              	stepcount:
 1034 0000 00       		.space	1
 1035 0001 000000   		.space	3
 1036              		.type	currentPosition, %object
 1037              		.size	currentPosition, 4
 1038              	currentPosition:
 1039 0004 00000000 		.space	4
 1040              		.text
 1041              	.Letext0:
 1042              		.file 2 "c:\\program files (x86)\\cypress\\psoc creator\\4.4\\psoc creator\\import\\gnu\\arm\\5.4.
 1043              		.file 3 "c:\\program files (x86)\\cypress\\psoc creator\\4.4\\psoc creator\\import\\gnu\\arm\\5.4.
 1044              		.file 4 "Generated_Source\\PSoC5/core_cm3.h"
 1045              		.file 5 "Generated_Source\\PSoC5/A2.h"
 1046              		.file 6 "Generated_Source\\PSoC5/B1.h"
 1047              		.file 7 "Generated_Source\\PSoC5/B2.h"
 1048              		.file 8 "Generated_Source\\PSoC5/A1.h"
 1049              		.file 9 "Generated_Source\\PSoC5/CyLib.h"