ARM GAS  C:\Users\magnu\AppData\Local\Temp\cc4FTokg.s 			page 1


   1              		.syntax unified
   2              		.cpu cortex-m3
   3              		.fpu softvfp
   4              		.eabi_attribute 20, 1
   5              		.eabi_attribute 21, 1
   6              		.eabi_attribute 23, 3
   7              		.eabi_attribute 24, 1
   8              		.eabi_attribute 25, 1
   9              		.eabi_attribute 26, 1
  10              		.eabi_attribute 30, 1
  11              		.eabi_attribute 34, 1
  12              		.eabi_attribute 18, 4
  13              		.thumb
  14              		.syntax unified
  15              		.file	"main.c"
  16              		.text
  17              	.Ltext0:
  18              		.cfi_sections	.debug_frame
  19              		.global	__aeabi_f2d
  20              		.global	__aeabi_f2uiz
  21              		.section	.text.main,"ax",%progbits
  22              		.align	2
  23              		.global	main
  24              		.thumb
  25              		.thumb_func
  26              		.type	main, %function
  27              	main:
  28              	.LFB64:
  29              		.file 1 "main.c"
   1:main.c        **** /* ========================================
   2:main.c        ****  *
   3:main.c        ****  * Copyright YOUR COMPANY, THE YEAR
   4:main.c        ****  * All Rights Reserved
   5:main.c        ****  * UNPUBLISHED, LICENSED SOFTWARE.
   6:main.c        ****  *
   7:main.c        ****  * CONFIDENTIAL AND PROPRIETARY INFORMATION
   8:main.c        ****  * WHICH IS THE PROPERTY OF your company.
   9:main.c        ****  *
  10:main.c        ****  * ========================================
  11:main.c        **** */
  12:main.c        **** #include "project.h"
  13:main.c        **** #include "Loadcell.h"
  14:main.c        **** #include "Timer.h"
  15:main.c        **** #include <stdio.h>
  16:main.c        **** 
  17:main.c        **** CY_ISR_PROTO(ISR_UART_rx_handler);
  18:main.c        **** void handleByteReceived(uint8_t byteReceived);
  19:main.c        **** char uartBuffer[256];
  20:main.c        **** int UCstate=0;
  21:main.c        **** 
  22:main.c        **** int main(void)
  23:main.c        **** {
  30              		.loc 1 23 0
  31              		.cfi_startproc
  32              		@ args = 0, pretend = 0, frame = 0
  33              		@ frame_needed = 0, uses_anonymous_args = 0
  34 0000 2DE9F043 		push	{r4, r5, r6, r7, r8, r9, lr}
ARM GAS  C:\Users\magnu\AppData\Local\Temp\cc4FTokg.s 			page 2


  35              		.cfi_def_cfa_offset 28
  36              		.cfi_offset 4, -28
  37              		.cfi_offset 5, -24
  38              		.cfi_offset 6, -20
  39              		.cfi_offset 7, -16
  40              		.cfi_offset 8, -12
  41              		.cfi_offset 9, -8
  42              		.cfi_offset 14, -4
  43 0004 83B0     		sub	sp, sp, #12
  44              		.cfi_def_cfa_offset 40
  24:main.c        ****     CyGlobalIntEnable; /* Enable global interrupts. */
  45              		.loc 1 24 0
  46              		.syntax unified
  47              	@ 24 "main.c" 1
  48 0006 62B6     		CPSIE   i
  49              	@ 0 "" 2
  25:main.c        ****     
  26:main.c        **** 
  27:main.c        ****     /* Place your initialization/startup code here (e.g. MyInst_Start()) */
  28:main.c        ****     
  29:main.c        ****     isr_uart_rx_StartEx(ISR_UART_rx_handler);
  50              		.loc 1 29 0
  51              		.thumb
  52              		.syntax unified
  53 0008 7748     		ldr	r0, .L15
  54 000a FFF7FEFF 		bl	isr_uart_rx_StartEx
  55              	.LVL0:
  30:main.c        ****     UART_1_Start();
  56              		.loc 1 30 0
  57 000e FFF7FEFF 		bl	UART_1_Start
  58              	.LVL1:
  31:main.c        ****     
  32:main.c        ****     initTimer();
  59              		.loc 1 32 0
  60 0012 FFF7FEFF 		bl	initTimer
  61              	.LVL2:
  33:main.c        ****     initLoadcell();
  62              		.loc 1 33 0
  63 0016 FFF7FEFF 		bl	initLoadcell
  64              	.LVL3:
  34:main.c        ****     UART_1_PutString("Scale application started\r\n");
  65              		.loc 1 34 0
  66 001a 7448     		ldr	r0, .L15+4
  67 001c FFF7FEFF 		bl	UART_1_PutString
  68              	.LVL4:
  69              	.L5:
  35:main.c        ****     
  36:main.c        ****     int repeats = 50;
  37:main.c        ****     float startoffset = 164.5;
  38:main.c        ****     float factor = 4.672;
  39:main.c        ****     int preload=0;
  40:main.c        ****     uint16_t Result_gram;
  41:main.c        ****     uint16_t gameReady=0;
  42:main.c        ****     uint16_t timestop=0;
  43:main.c        ****     uint16_t dnf=0;
  44:main.c        ****     uint32_t tid=0;
  45:main.c        ****     
ARM GAS  C:\Users\magnu\AppData\Local\Temp\cc4FTokg.s 			page 3


  46:main.c        **** 
  47:main.c        ****     //float zerodriftOffset = readWeight( repeats,startoffset,  factor, preload);
  48:main.c        ****     //snprintf(uartBuffer,sizeof(uartBuffer),"Read value (g) %f\r\n ", zerodriftOffset);
  49:main.c        ****     //UART_1_PutString(uartBuffer);
  50:main.c        ****     
  51:main.c        ****     
  52:main.c        ****     //offset_Zerodrift_calibrate( repeats,  startoffset,  factor, preload);
  53:main.c        ****     
  54:main.c        ****     
  55:main.c        ****     //zerodriftOffset = readWeight( repeats,startoffset,  factor, preload);
  56:main.c        ****     //snprintf(uartBuffer,sizeof(uartBuffer),"Read value (g) %f\r\n", zerodriftOffset);
  57:main.c        ****     
  58:main.c        ****     //UART_1_PutString(uartBuffer);
  59:main.c        ****     
  60:main.c        ****     
  61:main.c        ****     //wait_for_weight( startoffset,  factor, preload);
  62:main.c        ****     
  63:main.c        ****     //CyDelay(500);
  64:main.c        ****     //zerodriftOffset = readWeight( repeats,startoffset,  factor, preload);
  65:main.c        ****     //snprintf(uartBuffer,sizeof(uartBuffer),"Read value (g) %f\r\n", zerodriftOffset);
  66:main.c        ****     
  67:main.c        ****     //UART_1_PutString(uartBuffer);
  68:main.c        ****     
  69:main.c        ****     
  70:main.c        ****     for(;;)
  71:main.c        ****     {
  72:main.c        ****            //UC1 Game preperation
  73:main.c        ****     //Øl fjernet
  74:main.c        ****     if(UCstate==1)
  70              		.loc 1 74 0
  71 0020 734B     		ldr	r3, .L15+8
  72 0022 1B68     		ldr	r3, [r3]
  73 0024 012B     		cmp	r3, #1
  74 0026 1ED1     		bne	.L2
  75:main.c        ****     {
  76:main.c        ****     offset_Zerodrift_calibrate( repeats,  startoffset,  factor, preload);
  75              		.loc 1 76 0
  76 0028 724D     		ldr	r5, .L15+12
  77 002a 734C     		ldr	r4, .L15+16
  78 002c 0023     		movs	r3, #0
  79 002e 2A46     		mov	r2, r5
  80 0030 2146     		mov	r1, r4
  81 0032 3220     		movs	r0, #50
  82 0034 FFF7FEFF 		bl	offset_Zerodrift_calibrate
  83              	.LVL5:
  84              	.LBB2:
  77:main.c        ****     {
  78:main.c        ****     float zerodriftOffset = readWeight( repeats,startoffset,  factor, preload);
  85              		.loc 1 78 0
  86 0038 0023     		movs	r3, #0
  87 003a 2A46     		mov	r2, r5
  88 003c 2146     		mov	r1, r4
  89 003e 3220     		movs	r0, #50
  90 0040 FFF7FEFF 		bl	readWeight
  91              	.LVL6:
  79:main.c        ****     snprintf(uartBuffer,sizeof(uartBuffer),"Read value (g) %f\r\n ", zerodriftOffset);
  92              		.loc 1 79 0
ARM GAS  C:\Users\magnu\AppData\Local\Temp\cc4FTokg.s 			page 4


  93 0044 6D4C     		ldr	r4, .L15+20
  94 0046 FFF7FEFF 		bl	__aeabi_f2d
  95              	.LVL7:
  96 004a CDE90001 		strd	r0, [sp]
  97 004e 6C4A     		ldr	r2, .L15+24
  98 0050 4FF48071 		mov	r1, #256
  99 0054 2046     		mov	r0, r4
 100 0056 FFF7FEFF 		bl	snprintf
 101              	.LVL8:
  80:main.c        ****     UART_1_PutString(uartBuffer);
 102              		.loc 1 80 0
 103 005a 2046     		mov	r0, r4
 104 005c FFF7FEFF 		bl	UART_1_PutString
 105              	.LVL9:
 106              	.LBE2:
  81:main.c        ****     
  82:main.c        ****     }
  83:main.c        ****     UCstate=0;
 107              		.loc 1 83 0
 108 0060 0022     		movs	r2, #0
 109 0062 634B     		ldr	r3, .L15+8
 110 0064 1A60     		str	r2, [r3]
 111              	.L2:
  84:main.c        ****     }
  85:main.c        ****     
  86:main.c        ****     
  87:main.c        ****     
  88:main.c        ****     //der er sat en genstand på platform
  89:main.c        ****     if(UCstate==2)
 112              		.loc 1 89 0
 113 0066 624B     		ldr	r3, .L15+8
 114 0068 1B68     		ldr	r3, [r3]
 115 006a 022B     		cmp	r3, #2
 116 006c 32D1     		bne	.L3
  90:main.c        ****     {
  91:main.c        ****     wait_for_weight(startoffset, factor,preload);//venter på der bliver plasseret en øl
 117              		.loc 1 91 0
 118 006e 614D     		ldr	r5, .L15+12
 119 0070 614C     		ldr	r4, .L15+16
 120 0072 0022     		movs	r2, #0
 121 0074 2946     		mov	r1, r5
 122 0076 2046     		mov	r0, r4
 123 0078 FFF7FEFF 		bl	wait_for_weight
 124              	.LVL10:
  92:main.c        ****     CyDelay(3000); //delay så flasken flader til ro
 125              		.loc 1 92 0
 126 007c 40F6B830 		movw	r0, #3000
 127 0080 FFF7FEFF 		bl	CyDelay
 128              	.LVL11:
  93:main.c        ****     Result_gram = readWeight( repeats,startoffset, factor, preload);
 129              		.loc 1 93 0
 130 0084 0023     		movs	r3, #0
 131 0086 2A46     		mov	r2, r5
 132 0088 2146     		mov	r1, r4
 133 008a 3220     		movs	r0, #50
 134 008c FFF7FEFF 		bl	readWeight
 135              	.LVL12:
ARM GAS  C:\Users\magnu\AppData\Local\Temp\cc4FTokg.s 			page 5


 136 0090 FFF7FEFF 		bl	__aeabi_f2uiz
 137              	.LVL13:
 138 0094 84B2     		uxth	r4, r0
 139              	.LVL14:
  94:main.c        ****     {
  95:main.c        ****     
  96:main.c        ****     snprintf(uartBuffer,sizeof(uartBuffer),"Read value (g) %d\r\n ", Result_gram);
 140              		.loc 1 96 0
 141 0096 594D     		ldr	r5, .L15+20
 142 0098 2346     		mov	r3, r4
 143 009a 5A4A     		ldr	r2, .L15+28
 144 009c 4FF48071 		mov	r1, #256
 145 00a0 2846     		mov	r0, r5
 146 00a2 FFF7FEFF 		bl	snprintf
 147              	.LVL15:
  97:main.c        ****     UART_1_PutString(uartBuffer);
 148              		.loc 1 97 0
 149 00a6 2846     		mov	r0, r5
 150 00a8 FFF7FEFF 		bl	UART_1_PutString
 151              	.LVL16:
  98:main.c        ****     
  99:main.c        ****     }
 100:main.c        ****     if(Result_gram>650)
 152              		.loc 1 100 0
 153 00ac 40F28A23 		movw	r3, #650
 154 00b0 9C42     		cmp	r4, r3
 155 00b2 01D9     		bls	.L11
 101:main.c        ****     gameReady=1;
 156              		.loc 1 101 0
 157 00b4 0123     		movs	r3, #1
 158 00b6 00E0     		b	.L4
 159              	.L11:
 102:main.c        ****     else
 103:main.c        ****     gameReady=0;
 160              		.loc 1 103 0
 161 00b8 0023     		movs	r3, #0
 162              	.L4:
 163              	.LVL17:
 104:main.c        ****     {
 105:main.c        ****     snprintf(uartBuffer,sizeof(uartBuffer),"gameReady (g) %d\r\n ", gameReady);
 164              		.loc 1 105 0
 165 00ba 504C     		ldr	r4, .L15+20
 166              	.LVL18:
 167 00bc 524A     		ldr	r2, .L15+32
 168 00be 4FF48071 		mov	r1, #256
 169 00c2 2046     		mov	r0, r4
 170 00c4 FFF7FEFF 		bl	snprintf
 171              	.LVL19:
 106:main.c        ****     UART_1_PutString(uartBuffer);
 172              		.loc 1 106 0
 173 00c8 2046     		mov	r0, r4
 174 00ca FFF7FEFF 		bl	UART_1_PutString
 175              	.LVL20:
 107:main.c        ****     }
 108:main.c        ****     UCstate=0;
 176              		.loc 1 108 0
 177 00ce 0022     		movs	r2, #0
ARM GAS  C:\Users\magnu\AppData\Local\Temp\cc4FTokg.s 			page 6


 178 00d0 474B     		ldr	r3, .L15+8
 179 00d2 1A60     		str	r2, [r3]
 180              	.L3:
 109:main.c        ****     }
 110:main.c        ****      
 111:main.c        ****     //send signal til RPI, Hvis GameReady er 1 så er øllen godkendt
 112:main.c        ****     
 113:main.c        ****     
 114:main.c        ****     
 115:main.c        ****     //UC2 play game
 116:main.c        ****     
 117:main.c        ****     //Dermodtages GO signal
 118:main.c        ****     
 119:main.c        ****     if(UCstate==3)
 181              		.loc 1 119 0
 182 00d4 464B     		ldr	r3, .L15+8
 183 00d6 1B68     		ldr	r3, [r3]
 184 00d8 032B     		cmp	r3, #3
 185 00da A1D1     		bne	.L5
 186              	.LBB3:
 120:main.c        ****     {
 121:main.c        ****     Result_gram = readWeight(repeats,startoffset, factor, preload);
 187              		.loc 1 121 0
 188 00dc 0023     		movs	r3, #0
 189 00de 454A     		ldr	r2, .L15+12
 190 00e0 4549     		ldr	r1, .L15+16
 191 00e2 3220     		movs	r0, #50
 192 00e4 FFF7FEFF 		bl	readWeight
 193              	.LVL21:
 194 00e8 FFF7FEFF 		bl	__aeabi_f2uiz
 195              	.LVL22:
 196 00ec 84B2     		uxth	r4, r0
 197              	.LVL23:
 122:main.c        ****     {
 123:main.c        ****     
 124:main.c        ****     snprintf(uartBuffer,sizeof(uartBuffer),"Read value (g) %d\r\n ", Result_gram);
 198              		.loc 1 124 0
 199 00ee 434D     		ldr	r5, .L15+20
 200 00f0 2346     		mov	r3, r4
 201 00f2 444A     		ldr	r2, .L15+28
 202 00f4 4FF48071 		mov	r1, #256
 203 00f8 2846     		mov	r0, r5
 204 00fa FFF7FEFF 		bl	snprintf
 205              	.LVL24:
 125:main.c        ****     UART_1_PutString(uartBuffer);
 206              		.loc 1 125 0
 207 00fe 2846     		mov	r0, r5
 208 0100 FFF7FEFF 		bl	UART_1_PutString
 209              	.LVL25:
 126:main.c        ****     
 127:main.c        ****     }
 128:main.c        ****     if(Result_gram<10)
 210              		.loc 1 128 0
 211 0104 092C     		cmp	r4, #9
 212 0106 01D8     		bhi	.L12
 129:main.c        ****         dnf=1;
 213              		.loc 1 129 0
ARM GAS  C:\Users\magnu\AppData\Local\Temp\cc4FTokg.s 			page 7


 214 0108 0126     		movs	r6, #1
 215 010a 00E0     		b	.L6
 216              	.L12:
 130:main.c        ****     else
 131:main.c        ****         dnf=0;
 217              		.loc 1 131 0
 218 010c 0026     		movs	r6, #0
 219              	.L6:
 220              	.LVL26:
 132:main.c        ****     {
 133:main.c        ****     snprintf(uartBuffer,sizeof(uartBuffer),"Dnf (g) %d\r\n ", dnf);
 221              		.loc 1 133 0
 222 010e 3B4D     		ldr	r5, .L15+20
 223 0110 3346     		mov	r3, r6
 224 0112 3E4A     		ldr	r2, .L15+36
 225 0114 4FF48071 		mov	r1, #256
 226 0118 2846     		mov	r0, r5
 227 011a FFF7FEFF 		bl	snprintf
 228              	.LVL27:
 134:main.c        ****     UART_1_PutString(uartBuffer);
 229              		.loc 1 134 0
 230 011e 2846     		mov	r0, r5
 231 0120 FFF7FEFF 		bl	UART_1_PutString
 232              	.LVL28:
 135:main.c        ****     }
 136:main.c        ****     startTidsTagning();//timer startes
 233              		.loc 1 136 0
 234 0124 FFF7FEFF 		bl	startTidsTagning
 235              	.LVL29:
 137:main.c        ****     
 138:main.c        ****     while(Result_gram>10)
 236              		.loc 1 138 0
 237 0128 08E0     		b	.L7
 238              	.L8:
 139:main.c        ****     Result_gram = readWeight(repeats,startoffset, factor, preload);
 239              		.loc 1 139 0
 240 012a 0023     		movs	r3, #0
 241 012c 314A     		ldr	r2, .L15+12
 242 012e 3249     		ldr	r1, .L15+16
 243 0130 3220     		movs	r0, #50
 244 0132 FFF7FEFF 		bl	readWeight
 245              	.LVL30:
 246 0136 FFF7FEFF 		bl	__aeabi_f2uiz
 247              	.LVL31:
 248 013a 84B2     		uxth	r4, r0
 249              	.LVL32:
 250              	.L7:
 138:main.c        ****     Result_gram = readWeight(repeats,startoffset, factor, preload);
 251              		.loc 1 138 0
 252 013c 0A2C     		cmp	r4, #10
 253 013e F4D8     		bhi	.L8
 140:main.c        ****     
 141:main.c        ****     
 142:main.c        ****     wait_for_weight(startoffset, factor,preload);//venter på der bliver plasseret en øl
 254              		.loc 1 142 0
 255 0140 DFF8B080 		ldr	r8, .L15+12
 256 0144 2C4F     		ldr	r7, .L15+16
ARM GAS  C:\Users\magnu\AppData\Local\Temp\cc4FTokg.s 			page 8


 257 0146 0022     		movs	r2, #0
 258 0148 4146     		mov	r1, r8
 259 014a 3846     		mov	r0, r7
 260 014c FFF7FEFF 		bl	wait_for_weight
 261              	.LVL33:
 143:main.c        ****     timestop=1;
 144:main.c        ****     tid = stopTidsTagning();
 262              		.loc 1 144 0
 263 0150 FFF7FEFF 		bl	stopTidsTagning
 264              	.LVL34:
 265 0154 0346     		mov	r3, r0
 266              	.LVL35:
 145:main.c        ****     int roundedNum = (tid + 50) / 100 * 100;
 267              		.loc 1 145 0
 268 0156 00F13202 		add	r2, r0, #50
 269 015a 2D49     		ldr	r1, .L15+40
 270 015c A1FB0212 		umull	r1, r2, r1, r2
 271 0160 5209     		lsrs	r2, r2, #5
 272 0162 6425     		movs	r5, #100
 273 0164 05FB02F5 		mul	r5, r5, r2
 274              	.LVL36:
 146:main.c        ****     {
 147:main.c        ****     snprintf(uartBuffer,sizeof(uartBuffer),"tid (g) %d\r\n ", tid);
 275              		.loc 1 147 0
 276 0168 DFF8A890 		ldr	r9, .L15+44
 277 016c 234C     		ldr	r4, .L15+20
 278              	.LVL37:
 279 016e 4A46     		mov	r2, r9
 280 0170 4FF48071 		mov	r1, #256
 281 0174 2046     		mov	r0, r4
 282              	.LVL38:
 283 0176 FFF7FEFF 		bl	snprintf
 284              	.LVL39:
 148:main.c        ****     UART_1_PutString(uartBuffer);
 285              		.loc 1 148 0
 286 017a 2046     		mov	r0, r4
 287 017c FFF7FEFF 		bl	UART_1_PutString
 288              	.LVL40:
 149:main.c        ****     snprintf(uartBuffer,sizeof(uartBuffer),"tid (g) %d\r\n ", roundedNum);
 289              		.loc 1 149 0
 290 0180 2B46     		mov	r3, r5
 291 0182 4A46     		mov	r2, r9
 292 0184 4FF48071 		mov	r1, #256
 293 0188 2046     		mov	r0, r4
 294 018a FFF7FEFF 		bl	snprintf
 295              	.LVL41:
 150:main.c        ****     UART_1_PutString(uartBuffer);
 296              		.loc 1 150 0
 297 018e 2046     		mov	r0, r4
 298 0190 FFF7FEFF 		bl	UART_1_PutString
 299              	.LVL42:
 151:main.c        ****     }
 152:main.c        ****     //tid sendes
 153:main.c        ****     CyDelay(5000);
 300              		.loc 1 153 0
 301 0194 41F28830 		movw	r0, #5000
 302 0198 FFF7FEFF 		bl	CyDelay
ARM GAS  C:\Users\magnu\AppData\Local\Temp\cc4FTokg.s 			page 9


 303              	.LVL43:
 154:main.c        ****     Result_gram = readWeight(repeats,startoffset, factor, preload);
 304              		.loc 1 154 0
 305 019c 0023     		movs	r3, #0
 306 019e 4246     		mov	r2, r8
 307 01a0 3946     		mov	r1, r7
 308 01a2 3220     		movs	r0, #50
 309 01a4 FFF7FEFF 		bl	readWeight
 310              	.LVL44:
 311 01a8 FFF7FEFF 		bl	__aeabi_f2uiz
 312              	.LVL45:
 313 01ac 85B2     		uxth	r5, r0
 314              	.LVL46:
 155:main.c        ****     {
 156:main.c        ****     
 157:main.c        ****     snprintf(uartBuffer,sizeof(uartBuffer),"Read value (g) %d\r\n ", Result_gram);
 315              		.loc 1 157 0
 316 01ae 2B46     		mov	r3, r5
 317 01b0 144A     		ldr	r2, .L15+28
 318 01b2 4FF48071 		mov	r1, #256
 319 01b6 2046     		mov	r0, r4
 320 01b8 FFF7FEFF 		bl	snprintf
 321              	.LVL47:
 158:main.c        ****     UART_1_PutString(uartBuffer);
 322              		.loc 1 158 0
 323 01bc 2046     		mov	r0, r4
 324 01be FFF7FEFF 		bl	UART_1_PutString
 325              	.LVL48:
 159:main.c        ****     
 160:main.c        ****     }
 161:main.c        ****     if(Result_gram>310)
 326              		.loc 1 161 0
 327 01c2 B5F59B7F 		cmp	r5, #310
 328 01c6 00D9     		bls	.L9
 162:main.c        ****         dnf=1;
 329              		.loc 1 162 0
 330 01c8 0126     		movs	r6, #1
 331              	.LVL49:
 332              	.L9:
 163:main.c        ****     //dnf value sendes
 164:main.c        ****     {
 165:main.c        ****     snprintf(uartBuffer,sizeof(uartBuffer),"Dnf (g) %d\r\n ", dnf);
 333              		.loc 1 165 0
 334 01ca 0C4C     		ldr	r4, .L15+20
 335 01cc 3346     		mov	r3, r6
 336 01ce 0F4A     		ldr	r2, .L15+36
 337 01d0 4FF48071 		mov	r1, #256
 338 01d4 2046     		mov	r0, r4
 339 01d6 FFF7FEFF 		bl	snprintf
 340              	.LVL50:
 166:main.c        ****     UART_1_PutString(uartBuffer);
 341              		.loc 1 166 0
 342 01da 2046     		mov	r0, r4
 343 01dc FFF7FEFF 		bl	UART_1_PutString
 344              	.LVL51:
 167:main.c        ****     }
 168:main.c        ****     UCstate=0;
ARM GAS  C:\Users\magnu\AppData\Local\Temp\cc4FTokg.s 			page 10


 345              		.loc 1 168 0
 346 01e0 0022     		movs	r2, #0
 347 01e2 034B     		ldr	r3, .L15+8
 348 01e4 1A60     		str	r2, [r3]
 349 01e6 1BE7     		b	.L5
 350              	.L16:
 351              		.align	2
 352              	.L15:
 353 01e8 00000000 		.word	ISR_UART_rx_handler
 354 01ec 00000000 		.word	.LC0
 355 01f0 00000000 		.word	.LANCHOR0
 356 01f4 06819540 		.word	1083539718
 357 01f8 00802443 		.word	1126465536
 358 01fc 00000000 		.word	uartBuffer
 359 0200 1C000000 		.word	.LC1
 360 0204 34000000 		.word	.LC2
 361 0208 4C000000 		.word	.LC3
 362 020c 60000000 		.word	.LC4
 363 0210 1F85EB51 		.word	1374389535
 364 0214 70000000 		.word	.LC5
 365              	.LBE3:
 366              		.cfi_endproc
 367              	.LFE64:
 368              		.size	main, .-main
 369              		.section	.text.handleByteReceived,"ax",%progbits
 370              		.align	2
 371              		.global	handleByteReceived
 372              		.thumb
 373              		.thumb_func
 374              		.type	handleByteReceived, %function
 375              	handleByteReceived:
 376              	.LFB65:
 169:main.c        ****     }
 170:main.c        ****     
 171:main.c        ****     }
 172:main.c        ****     
 173:main.c        **** }
 174:main.c        **** 
 175:main.c        **** void handleByteReceived(uint8_t byteReceived)
 176:main.c        **** {
 377              		.loc 1 176 0
 378              		.cfi_startproc
 379              		@ args = 0, pretend = 0, frame = 0
 380              		@ frame_needed = 0, uses_anonymous_args = 0
 381              		@ link register save eliminated.
 382              	.LVL52:
 177:main.c        ****     switch(byteReceived)
 383              		.loc 1 177 0
 384 0000 3138     		subs	r0, r0, #49
 385              	.LVL53:
 386 0002 0328     		cmp	r0, #3
 387 0004 12D8     		bhi	.L17
 388 0006 DFE800F0 		tbb	[pc, r0]
 389              	.L20:
 390 000a 02       		.byte	(.L19-.L20)/2
 391 000b 06       		.byte	(.L21-.L20)/2
 392 000c 0A       		.byte	(.L22-.L20)/2
ARM GAS  C:\Users\magnu\AppData\Local\Temp\cc4FTokg.s 			page 11


 393 000d 0E       		.byte	(.L23-.L20)/2
 394              		.p2align 1
 395              	.L19:
 178:main.c        ****     {
 179:main.c        ****         case '1' :
 180:main.c        ****         {
 181:main.c        ****             UCstate=1;
 396              		.loc 1 181 0
 397 000e 0122     		movs	r2, #1
 398 0010 074B     		ldr	r3, .L24
 399 0012 1A60     		str	r2, [r3]
 182:main.c        ****         }
 183:main.c        ****         break;
 400              		.loc 1 183 0
 401 0014 7047     		bx	lr
 402              	.L21:
 184:main.c        ****         case '2' :
 185:main.c        ****         {
 186:main.c        ****             UCstate=2;
 403              		.loc 1 186 0
 404 0016 0222     		movs	r2, #2
 405 0018 054B     		ldr	r3, .L24
 406 001a 1A60     		str	r2, [r3]
 187:main.c        ****         }
 188:main.c        ****         break;
 407              		.loc 1 188 0
 408 001c 7047     		bx	lr
 409              	.L22:
 189:main.c        ****         case '3' :
 190:main.c        ****         {
 191:main.c        ****             UCstate=3;
 410              		.loc 1 191 0
 411 001e 0322     		movs	r2, #3
 412 0020 034B     		ldr	r3, .L24
 413 0022 1A60     		str	r2, [r3]
 192:main.c        ****         }
 193:main.c        ****         break;
 414              		.loc 1 193 0
 415 0024 7047     		bx	lr
 416              	.L23:
 194:main.c        ****         case '4' :
 195:main.c        ****         {
 196:main.c        ****             UCstate=2;
 417              		.loc 1 196 0
 418 0026 0222     		movs	r2, #2
 419 0028 014B     		ldr	r3, .L24
 420 002a 1A60     		str	r2, [r3]
 421              	.L17:
 422 002c 7047     		bx	lr
 423              	.L25:
 424 002e 00BF     		.align	2
 425              	.L24:
 426 0030 00000000 		.word	.LANCHOR0
 427              		.cfi_endproc
 428              	.LFE65:
 429              		.size	handleByteReceived, .-handleByteReceived
 430              		.section	.text.ISR_UART_rx_handler,"ax",%progbits
ARM GAS  C:\Users\magnu\AppData\Local\Temp\cc4FTokg.s 			page 12


 431              		.align	2
 432              		.global	ISR_UART_rx_handler
 433              		.thumb
 434              		.thumb_func
 435              		.type	ISR_UART_rx_handler, %function
 436              	ISR_UART_rx_handler:
 437              	.LFB66:
 197:main.c        ****         }
 198:main.c        ****         break;
 199:main.c        ****         default :
 200:main.c        ****         {
 201:main.c        ****             // nothing
 202:main.c        ****         }
 203:main.c        ****         break;
 204:main.c        ****     }
 205:main.c        **** }
 206:main.c        **** 
 207:main.c        **** CY_ISR(ISR_UART_rx_handler)
 208:main.c        **** {
 438              		.loc 1 208 0
 439              		.cfi_startproc
 440              		@ args = 0, pretend = 0, frame = 0
 441              		@ frame_needed = 0, uses_anonymous_args = 0
 442 0000 38B5     		push	{r3, r4, r5, lr}
 443              		.cfi_def_cfa_offset 16
 444              		.cfi_offset 3, -16
 445              		.cfi_offset 4, -12
 446              		.cfi_offset 5, -8
 447              		.cfi_offset 14, -4
 209:main.c        ****     
 210:main.c        ****     uint8_t bytesToRead = UART_1_GetRxBufferSize();
 448              		.loc 1 210 0
 449 0002 FFF7FEFF 		bl	UART_1_GetRxBufferSize
 450              	.LVL54:
 451 0006 0446     		mov	r4, r0
 452              	.LVL55:
 211:main.c        ****     while (bytesToRead > 0)
 453              		.loc 1 211 0
 454 0008 09E0     		b	.L27
 455              	.L28:
 456              	.LBB4:
 212:main.c        ****     {
 213:main.c        ****         uint8_t byteReceived = UART_1_ReadRxData();
 457              		.loc 1 213 0
 458 000a FFF7FEFF 		bl	UART_1_ReadRxData
 459              	.LVL56:
 460 000e 0546     		mov	r5, r0
 461              	.LVL57:
 214:main.c        ****         UART_1_WriteTxData(byteReceived); // echo back
 462              		.loc 1 214 0
 463 0010 FFF7FEFF 		bl	UART_1_WriteTxData
 464              	.LVL58:
 215:main.c        ****         
 216:main.c        ****         handleByteReceived(byteReceived);
 465              		.loc 1 216 0
 466 0014 2846     		mov	r0, r5
 467 0016 FFF7FEFF 		bl	handleByteReceived
ARM GAS  C:\Users\magnu\AppData\Local\Temp\cc4FTokg.s 			page 13


 468              	.LVL59:
 217:main.c        ****         
 218:main.c        ****         bytesToRead--;
 469              		.loc 1 218 0
 470 001a 013C     		subs	r4, r4, #1
 471              	.LVL60:
 472 001c E4B2     		uxtb	r4, r4
 473              	.LVL61:
 474              	.L27:
 475              	.LBE4:
 211:main.c        ****     {
 476              		.loc 1 211 0
 477 001e 002C     		cmp	r4, #0
 478 0020 F3D1     		bne	.L28
 219:main.c        ****     }
 220:main.c        **** }
 479              		.loc 1 220 0
 480 0022 38BD     		pop	{r3, r4, r5, pc}
 481              		.cfi_endproc
 482              	.LFE66:
 483              		.size	ISR_UART_rx_handler, .-ISR_UART_rx_handler
 484              		.global	UCstate
 485              		.comm	uartBuffer,256,4
 486              		.section	.rodata.str1.4,"aMS",%progbits,1
 487              		.align	2
 488              	.LC0:
 489 0000 5363616C 		.ascii	"Scale application started\015\012\000"
 489      65206170 
 489      706C6963 
 489      6174696F 
 489      6E207374 
 490              	.LC1:
 491 001c 52656164 		.ascii	"Read value (g) %f\015\012 \000"
 491      2076616C 
 491      75652028 
 491      67292025 
 491      660D0A20 
 492 0031 000000   		.space	3
 493              	.LC2:
 494 0034 52656164 		.ascii	"Read value (g) %d\015\012 \000"
 494      2076616C 
 494      75652028 
 494      67292025 
 494      640D0A20 
 495 0049 000000   		.space	3
 496              	.LC3:
 497 004c 67616D65 		.ascii	"gameReady (g) %d\015\012 \000"
 497      52656164 
 497      79202867 
 497      29202564 
 497      0D0A2000 
 498              	.LC4:
 499 0060 446E6620 		.ascii	"Dnf (g) %d\015\012 \000"
 499      28672920 
 499      25640D0A 
 499      2000
 500 006e 0000     		.space	2
ARM GAS  C:\Users\magnu\AppData\Local\Temp\cc4FTokg.s 			page 14


 501              	.LC5:
 502 0070 74696420 		.ascii	"tid (g) %d\015\012 \000"
 502      28672920 
 502      25640D0A 
 502      2000
 503              		.bss
 504              		.align	2
 505              		.set	.LANCHOR0,. + 0
 506              		.type	UCstate, %object
 507              		.size	UCstate, 4
 508              	UCstate:
 509 0000 00000000 		.space	4
 510              		.text
 511              	.Letext0:
 512              		.file 2 "c:\\program files (x86)\\cypress\\psoc creator\\4.4\\psoc creator\\import\\gnu\\arm\\5.4.
 513              		.file 3 "c:\\program files (x86)\\cypress\\psoc creator\\4.4\\psoc creator\\import\\gnu\\arm\\5.4.
 514              		.file 4 "Generated_Source\\PSoC5/core_cm3.h"
 515              		.file 5 "Loadcell.h"
 516              		.file 6 "c:\\program files (x86)\\cypress\\psoc creator\\4.4\\psoc creator\\import\\gnu\\arm\\5.4.
 517              		.file 7 "Generated_Source\\PSoC5/UART_1.h"
 518              		.file 8 "Timer.h"
 519              		.file 9 "Generated_Source\\PSoC5/CyLib.h"
 520              		.file 10 "Generated_Source\\PSoC5/isr_uart_rx.h"