ARM GAS  C:\Users\magnu\AppData\Local\Temp\ccEGpXHo.s 			page 1


   1              		.syntax unified
   2              		.cpu cortex-m3
   3              		.fpu softvfp
   4              		.eabi_attribute 20, 1
   5              		.eabi_attribute 21, 1
   6              		.eabi_attribute 23, 3
   7              		.eabi_attribute 24, 1
   8              		.eabi_attribute 25, 1
   9              		.eabi_attribute 26, 1
  10              		.eabi_attribute 30, 1
  11              		.eabi_attribute 34, 1
  12              		.eabi_attribute 18, 4
  13              		.thumb
  14              		.syntax unified
  15              		.file	"Timer.c"
  16              		.text
  17              	.Ltext0:
  18              		.cfi_sections	.debug_frame
  19              		.section	.text.initTimer,"ax",%progbits
  20              		.align	2
  21              		.global	initTimer
  22              		.thumb
  23              		.thumb_func
  24              		.type	initTimer, %function
  25              	initTimer:
  26              	.LFB64:
  27              		.file 1 "Timer.c"
   1:Timer.c       **** /* ========================================
   2:Timer.c       ****  *
   3:Timer.c       ****  * Copyright YOUR COMPANY, THE YEAR
   4:Timer.c       ****  * All Rights Reserved
   5:Timer.c       ****  * UNPUBLISHED, LICENSED SOFTWARE.
   6:Timer.c       ****  *
   7:Timer.c       ****  * CONFIDENTIAL AND PROPRIETARY INFORMATION
   8:Timer.c       ****  * WHICH IS THE PROPERTY OF your company.
   9:Timer.c       ****  *
  10:Timer.c       ****  * ========================================
  11:Timer.c       **** */
  12:Timer.c       **** #include "project.h"
  13:Timer.c       **** #include "Timer.h"
  14:Timer.c       **** #include <stdio.h>
  15:Timer.c       **** 
  16:Timer.c       **** volatile uint16 startCount = 0;
  17:Timer.c       **** volatile uint16 stopCount = 0;
  18:Timer.c       **** static char outputBuffer[256];
  19:Timer.c       **** uint32 counter=0;
  20:Timer.c       **** 
  21:Timer.c       **** const uint32 tick_period_ms = 10;
  22:Timer.c       **** uint32 start_counter = 0;
  23:Timer.c       **** uint32 stop_counter=0;
  24:Timer.c       **** uint32 time_interval_ticks = 0;
  25:Timer.c       **** uint32 time_interval_ms=0;
  26:Timer.c       **** 
  27:Timer.c       **** 
  28:Timer.c       **** void initTimer(void)
  29:Timer.c       **** {
  28              		.loc 1 29 0
ARM GAS  C:\Users\magnu\AppData\Local\Temp\ccEGpXHo.s 			page 2


  29              		.cfi_startproc
  30              		@ args = 0, pretend = 0, frame = 0
  31              		@ frame_needed = 0, uses_anonymous_args = 0
  32              		@ link register save eliminated.
  33 0000 7047     		bx	lr
  34              		.cfi_endproc
  35              	.LFE64:
  36              		.size	initTimer, .-initTimer
  37 0002 00BF     		.section	.text.startTidsTagning,"ax",%progbits
  38              		.align	2
  39              		.global	startTidsTagning
  40              		.thumb
  41              		.thumb_func
  42              		.type	startTidsTagning, %function
  43              	startTidsTagning:
  44              	.LFB65:
  30:Timer.c       ****     
  31:Timer.c       ****     
  32:Timer.c       **** }
  33:Timer.c       **** 
  34:Timer.c       **** void startTidsTagning()
  35:Timer.c       **** {
  45              		.loc 1 35 0
  46              		.cfi_startproc
  47              		@ args = 0, pretend = 0, frame = 0
  48              		@ frame_needed = 0, uses_anonymous_args = 0
  49              		.loc 1 35 0
  50 0000 08B5     		push	{r3, lr}
  51              		.cfi_def_cfa_offset 8
  52              		.cfi_offset 3, -8
  53              		.cfi_offset 14, -4
  36:Timer.c       ****     
  37:Timer.c       ****     Timer_1_Start();
  54              		.loc 1 37 0
  55 0002 FFF7FEFF 		bl	Timer_1_Start
  56              	.LVL0:
  38:Timer.c       ****     start_counter = Timer_1_ReadCounter();
  57              		.loc 1 38 0
  58 0006 FFF7FEFF 		bl	Timer_1_ReadCounter
  59              	.LVL1:
  60 000a 014B     		ldr	r3, .L4
  61 000c 1860     		str	r0, [r3]
  62 000e 08BD     		pop	{r3, pc}
  63              	.L5:
  64              		.align	2
  65              	.L4:
  66 0010 00000000 		.word	.LANCHOR0
  67              		.cfi_endproc
  68              	.LFE65:
  69              		.size	startTidsTagning, .-startTidsTagning
  70              		.section	.text.stopTidsTagning,"ax",%progbits
  71              		.align	2
  72              		.global	stopTidsTagning
  73              		.thumb
  74              		.thumb_func
  75              		.type	stopTidsTagning, %function
  76              	stopTidsTagning:
ARM GAS  C:\Users\magnu\AppData\Local\Temp\ccEGpXHo.s 			page 3


  77              	.LFB66:
  39:Timer.c       **** }
  40:Timer.c       **** uint32 stopTidsTagning()
  41:Timer.c       **** {
  78              		.loc 1 41 0
  79              		.cfi_startproc
  80              		@ args = 0, pretend = 0, frame = 0
  81              		@ frame_needed = 0, uses_anonymous_args = 0
  82 0000 10B5     		push	{r4, lr}
  83              		.cfi_def_cfa_offset 8
  84              		.cfi_offset 4, -8
  85              		.cfi_offset 14, -4
  42:Timer.c       ****     
  43:Timer.c       ****     stop_counter = Timer_1_ReadCounter();
  86              		.loc 1 43 0
  87 0002 FFF7FEFF 		bl	Timer_1_ReadCounter
  88              	.LVL2:
  89 0006 074C     		ldr	r4, .L8
  90 0008 6060     		str	r0, [r4, #4]
  44:Timer.c       **** 
  45:Timer.c       ****     // Beregn tidsintervallet i ticks
  46:Timer.c       ****     time_interval_ticks = start_counter - stop_counter;
  91              		.loc 1 46 0
  92 000a 2368     		ldr	r3, [r4]
  93 000c 181A     		subs	r0, r3, r0
  94 000e A060     		str	r0, [r4, #8]
  47:Timer.c       **** 
  48:Timer.c       ****     // Konverter tidsintervallet til tid i millisekunder
  49:Timer.c       ****     time_interval_ms = time_interval_ticks/100;
  95              		.loc 1 49 0
  96 0010 054B     		ldr	r3, .L8+4
  97 0012 A3FB0030 		umull	r3, r0, r3, r0
  98 0016 4009     		lsrs	r0, r0, #5
  99 0018 E060     		str	r0, [r4, #12]
  50:Timer.c       ****         
  51:Timer.c       **** 
  52:Timer.c       ****     Timer_1_Stop();
 100              		.loc 1 52 0
 101 001a FFF7FEFF 		bl	Timer_1_Stop
 102              	.LVL3:
  53:Timer.c       ****     
  54:Timer.c       ****     return time_interval_ms;
  55:Timer.c       **** }
 103              		.loc 1 55 0
 104 001e E068     		ldr	r0, [r4, #12]
 105 0020 10BD     		pop	{r4, pc}
 106              	.L9:
 107 0022 00BF     		.align	2
 108              	.L8:
 109 0024 00000000 		.word	.LANCHOR0
 110 0028 1F85EB51 		.word	1374389535
 111              		.cfi_endproc
 112              	.LFE66:
 113              		.size	stopTidsTagning, .-stopTidsTagning
 114              		.global	time_interval_ms
 115              		.global	time_interval_ticks
 116              		.global	stop_counter
ARM GAS  C:\Users\magnu\AppData\Local\Temp\ccEGpXHo.s 			page 4


 117              		.global	start_counter
 118              		.global	tick_period_ms
 119              		.global	counter
 120              		.global	stopCount
 121              		.global	startCount
 122              		.section	.rodata
 123              		.align	2
 124              		.type	tick_period_ms, %object
 125              		.size	tick_period_ms, 4
 126              	tick_period_ms:
 127 0000 0A000000 		.word	10
 128              		.bss
 129              		.align	2
 130              		.set	.LANCHOR0,. + 0
 131              		.type	start_counter, %object
 132              		.size	start_counter, 4
 133              	start_counter:
 134 0000 00000000 		.space	4
 135              		.type	stop_counter, %object
 136              		.size	stop_counter, 4
 137              	stop_counter:
 138 0004 00000000 		.space	4
 139              		.type	time_interval_ticks, %object
 140              		.size	time_interval_ticks, 4
 141              	time_interval_ticks:
 142 0008 00000000 		.space	4
 143              		.type	time_interval_ms, %object
 144              		.size	time_interval_ms, 4
 145              	time_interval_ms:
 146 000c 00000000 		.space	4
 147              		.type	counter, %object
 148              		.size	counter, 4
 149              	counter:
 150 0010 00000000 		.space	4
 151              		.type	stopCount, %object
 152              		.size	stopCount, 2
 153              	stopCount:
 154 0014 0000     		.space	2
 155              		.type	startCount, %object
 156              		.size	startCount, 2
 157              	startCount:
 158 0016 0000     		.space	2
 159              		.text
 160              	.Letext0:
 161              		.file 2 "c:\\program files (x86)\\cypress\\psoc creator\\4.4\\psoc creator\\import\\gnu\\arm\\5.4.
 162              		.file 3 "c:\\program files (x86)\\cypress\\psoc creator\\4.4\\psoc creator\\import\\gnu\\arm\\5.4.
 163              		.file 4 "Generated_Source\\PSoC5/cytypes.h"
 164              		.file 5 "Generated_Source\\PSoC5/core_cm3.h"
 165              		.file 6 "Generated_Source\\PSoC5/Timer_1.h"