ARM GAS  C:\Users\deniz\AppData\Local\Temp\ccml7zNT.s 			page 1


   1              		.syntax unified
   2              		.cpu cortex-m3
   3              		.fpu softvfp
   4              		.eabi_attribute 20, 1
   5              		.eabi_attribute 21, 1
   6              		.eabi_attribute 23, 3
   7              		.eabi_attribute 24, 1
   8              		.eabi_attribute 25, 1
   9              		.eabi_attribute 26, 1
  10              		.eabi_attribute 30, 1
  11              		.eabi_attribute 34, 1
  12              		.eabi_attribute 18, 4
  13              		.thumb
  14              		.syntax unified
  15              		.file	"Loadcell.c"
  16              		.text
  17              	.Ltext0:
  18              		.cfi_sections	.debug_frame
  19              		.section	.text.initLoadcell,"ax",%progbits
  20              		.align	2
  21              		.global	initLoadcell
  22              		.thumb
  23              		.thumb_func
  24              		.type	initLoadcell, %function
  25              	initLoadcell:
  26              	.LFB64:
  27              		.file 1 "Loadcell.c"
   1:Loadcell.c    **** /* ========================================
   2:Loadcell.c    ****  *
   3:Loadcell.c    ****  * Copyright YOUR COMPANY, THE YEAR
   4:Loadcell.c    ****  * All Rights Reserved
   5:Loadcell.c    ****  * UNPUBLISHED, LICENSED SOFTWARE.
   6:Loadcell.c    ****  *
   7:Loadcell.c    ****  * CONFIDENTIAL AND PROPRIETARY INFORMATION
   8:Loadcell.c    ****  * WHICH IS THE PROPERTY OF your company.
   9:Loadcell.c    ****  *
  10:Loadcell.c    ****  * ========================================
  11:Loadcell.c    **** */
  12:Loadcell.c    **** #include "project.h"
  13:Loadcell.c    **** #include "Loadcell.h"
  14:Loadcell.c    **** #include <stdio.h>
  15:Loadcell.c    **** 
  16:Loadcell.c    **** 
  17:Loadcell.c    **** float zeroDriftOffset=0;
  18:Loadcell.c    **** 
  19:Loadcell.c    **** 
  20:Loadcell.c    **** 
  21:Loadcell.c    **** 
  22:Loadcell.c    **** 
  23:Loadcell.c    **** void initLoadcell(void)
  24:Loadcell.c    **** {
  28              		.loc 1 24 0
  29              		.cfi_startproc
  30              		@ args = 0, pretend = 0, frame = 0
  31              		@ frame_needed = 0, uses_anonymous_args = 0
  32 0000 08B5     		push	{r3, lr}
  33              		.cfi_def_cfa_offset 8
ARM GAS  C:\Users\deniz\AppData\Local\Temp\ccml7zNT.s 			page 2


  34              		.cfi_offset 3, -8
  35              		.cfi_offset 14, -4
  25:Loadcell.c    ****     ADC_SAR_1_Start();
  36              		.loc 1 25 0
  37 0002 FFF7FEFF 		bl	ADC_SAR_1_Start
  38              	.LVL0:
  26:Loadcell.c    ****     ADC_SAR_1_StartConvert();
  39              		.loc 1 26 0
  40 0006 FFF7FEFF 		bl	ADC_SAR_1_StartConvert
  41              	.LVL1:
  42 000a 08BD     		pop	{r3, pc}
  43              		.cfi_endproc
  44              	.LFE64:
  45              		.size	initLoadcell, .-initLoadcell
  46              		.global	__aeabi_i2f
  47              		.global	__aeabi_fadd
  48              		.global	__aeabi_fdiv
  49              		.global	__aeabi_fsub
  50              		.section	.text.offset_Zerodrift_calibrate,"ax",%progbits
  51              		.align	2
  52              		.global	offset_Zerodrift_calibrate
  53              		.thumb
  54              		.thumb_func
  55              		.type	offset_Zerodrift_calibrate, %function
  56              	offset_Zerodrift_calibrate:
  57              	.LFB65:
  27:Loadcell.c    **** }
  28:Loadcell.c    **** 
  29:Loadcell.c    **** 
  30:Loadcell.c    **** 
  31:Loadcell.c    **** void offset_Zerodrift_calibrate(uint8_t repeats, float startoffset, float factor,uint8_t preload)
  32:Loadcell.c    **** {
  58              		.loc 1 32 0
  59              		.cfi_startproc
  60              		@ args = 0, pretend = 0, frame = 8
  61              		@ frame_needed = 1, uses_anonymous_args = 0
  62              	.LVL2:
  63 0000 2DE9F04F 		push	{r4, r5, r6, r7, r8, r9, r10, fp, lr}
  64              		.cfi_def_cfa_offset 36
  65              		.cfi_offset 4, -36
  66              		.cfi_offset 5, -32
  67              		.cfi_offset 6, -28
  68              		.cfi_offset 7, -24
  69              		.cfi_offset 8, -20
  70              		.cfi_offset 9, -16
  71              		.cfi_offset 10, -12
  72              		.cfi_offset 11, -8
  73              		.cfi_offset 14, -4
  74 0004 83B0     		sub	sp, sp, #12
  75              		.cfi_def_cfa_offset 48
  76 0006 00AF     		add	r7, sp, #0
  77              		.cfi_def_cfa_register 7
  78 0008 0646     		mov	r6, r0
  79 000a 8A46     		mov	r10, r1
  80 000c 9146     		mov	r9, r2
  81 000e 7B60     		str	r3, [r7, #4]
  33:Loadcell.c    ****    float result_array[repeats];
ARM GAS  C:\Users\deniz\AppData\Local\Temp\ccml7zNT.s 			page 3


  82              		.loc 1 33 0
  83 0010 0546     		mov	r5, r0
  84              	.LVL3:
  85 0012 8300     		lsls	r3, r0, #2
  86              	.LVL4:
  87 0014 0A33     		adds	r3, r3, #10
  88 0016 23F00703 		bic	r3, r3, #7
  89 001a ADEB030D 		sub	sp, sp, r3
  90 001e EB46     		mov	fp, sp
  91              	.LVL5:
  34:Loadcell.c    ****     float result_gram;
  35:Loadcell.c    ****     float result=0;
  36:Loadcell.c    ****     
  37:Loadcell.c    ****     int i=0;
  92              		.loc 1 37 0
  93 0020 0024     		movs	r4, #0
  35:Loadcell.c    ****     
  94              		.loc 1 35 0
  95 0022 4FF00008 		mov	r8, #0
  38:Loadcell.c    ****             while(i<repeats)
  96              		.loc 1 38 0
  97 0026 0FE0     		b	.L5
  98              	.LVL6:
  99              	.L6:
  39:Loadcell.c    ****             {
  40:Loadcell.c    ****                 if (ADC_SAR_1_IsEndConversion(ADC_SAR_1_WAIT_FOR_RESULT))
 100              		.loc 1 40 0
 101 0028 0020     		movs	r0, #0
 102 002a FFF7FEFF 		bl	ADC_SAR_1_IsEndConversion
 103              	.LVL7:
 104 002e 58B1     		cbz	r0, .L5
  41:Loadcell.c    ****                 {
  42:Loadcell.c    ****                 result_array[i]=ADC_SAR_1_GetResult16();
 105              		.loc 1 42 0
 106 0030 FFF7FEFF 		bl	ADC_SAR_1_GetResult16
 107              	.LVL8:
 108 0034 FFF7FEFF 		bl	__aeabi_i2f
 109              	.LVL9:
 110 0038 0146     		mov	r1, r0
 111 003a 4BF82400 		str	r0, [fp, r4, lsl #2]	@ float
  43:Loadcell.c    ****                 result+=result_array[i];
 112              		.loc 1 43 0
 113 003e 4046     		mov	r0, r8
 114 0040 FFF7FEFF 		bl	__aeabi_fadd
 115              	.LVL10:
 116 0044 8046     		mov	r8, r0
 117              	.LVL11:
  44:Loadcell.c    ****                 i++;
 118              		.loc 1 44 0
 119 0046 0134     		adds	r4, r4, #1
 120              	.LVL12:
 121              	.L5:
  38:Loadcell.c    ****             {
 122              		.loc 1 38 0
 123 0048 AC42     		cmp	r4, r5
 124 004a EDDB     		blt	.L6
  45:Loadcell.c    ****                 }
ARM GAS  C:\Users\deniz\AppData\Local\Temp\ccml7zNT.s 			page 4


  46:Loadcell.c    ****             }
  47:Loadcell.c    ****             
  48:Loadcell.c    ****     result=result/repeats; 
 125              		.loc 1 48 0
 126 004c 3046     		mov	r0, r6
 127 004e FFF7FEFF 		bl	__aeabi_i2f
 128              	.LVL13:
 129 0052 0146     		mov	r1, r0
 130 0054 4046     		mov	r0, r8
 131 0056 FFF7FEFF 		bl	__aeabi_fdiv
 132              	.LVL14:
  49:Loadcell.c    ****     result_gram = (((float)result-startoffset)/factor); // Konvertering til gram
 133              		.loc 1 49 0
 134 005a 5146     		mov	r1, r10
 135 005c FFF7FEFF 		bl	__aeabi_fsub
 136              	.LVL15:
 137 0060 4946     		mov	r1, r9
 138 0062 FFF7FEFF 		bl	__aeabi_fdiv
 139              	.LVL16:
 140 0066 0446     		mov	r4, r0
 141              	.LVL17:
  50:Loadcell.c    ****     zeroDriftOffset= result_gram-preload;
 142              		.loc 1 50 0
 143 0068 7868     		ldr	r0, [r7, #4]
 144              	.LVL18:
 145 006a FFF7FEFF 		bl	__aeabi_i2f
 146              	.LVL19:
 147 006e 0146     		mov	r1, r0
 148 0070 2046     		mov	r0, r4
 149 0072 FFF7FEFF 		bl	__aeabi_fsub
 150              	.LVL20:
 151 0076 034B     		ldr	r3, .L8
 152 0078 1860     		str	r0, [r3]	@ float
  51:Loadcell.c    **** }
 153              		.loc 1 51 0
 154 007a 0C37     		adds	r7, r7, #12
 155              		.cfi_def_cfa_offset 36
 156 007c BD46     		mov	sp, r7
 157              		.cfi_def_cfa_register 13
 158              		@ sp needed
 159 007e BDE8F08F 		pop	{r4, r5, r6, r7, r8, r9, r10, fp, pc}
 160              	.LVL21:
 161              	.L9:
 162 0082 00BF     		.align	2
 163              	.L8:
 164 0084 00000000 		.word	.LANCHOR0
 165              		.cfi_endproc
 166              	.LFE65:
 167              		.size	offset_Zerodrift_calibrate, .-offset_Zerodrift_calibrate
 168              		.global	__aeabi_ui2f
 169              		.global	__aeabi_fcmplt
 170              		.section	.text.wait_for_weight,"ax",%progbits
 171              		.align	2
 172              		.global	wait_for_weight
 173              		.thumb
 174              		.thumb_func
 175              		.type	wait_for_weight, %function
ARM GAS  C:\Users\deniz\AppData\Local\Temp\ccml7zNT.s 			page 5


 176              	wait_for_weight:
 177              	.LFB66:
  52:Loadcell.c    **** void wait_for_weight(float startoffset, float factor,uint8_t preload)
  53:Loadcell.c    **** {
 178              		.loc 1 53 0
 179              		.cfi_startproc
 180              		@ args = 0, pretend = 0, frame = 0
 181              		@ frame_needed = 0, uses_anonymous_args = 0
 182              	.LVL22:
 183 0000 F8B5     		push	{r3, r4, r5, r6, r7, lr}
 184              		.cfi_def_cfa_offset 24
 185              		.cfi_offset 3, -24
 186              		.cfi_offset 4, -20
 187              		.cfi_offset 5, -16
 188              		.cfi_offset 6, -12
 189              		.cfi_offset 7, -8
 190              		.cfi_offset 14, -4
 191 0002 0746     		mov	r7, r0
 192 0004 0E46     		mov	r6, r1
 193 0006 1546     		mov	r5, r2
  54:Loadcell.c    ****     float result_gram;
  55:Loadcell.c    ****     while(result_gram<50)
 194              		.loc 1 55 0
 195 0008 1BE0     		b	.L12
 196              	.LVL23:
 197              	.L13:
  56:Loadcell.c    ****     {
  57:Loadcell.c    ****     if (ADC_SAR_1_IsEndConversion(ADC_SAR_1_WAIT_FOR_RESULT))
 198              		.loc 1 57 0
 199 000a 0020     		movs	r0, #0
 200 000c FFF7FEFF 		bl	ADC_SAR_1_IsEndConversion
 201              	.LVL24:
 202 0010 B8B1     		cbz	r0, .L12
 203              	.LBB2:
  58:Loadcell.c    ****         {
  59:Loadcell.c    ****             uint16_t result = ADC_SAR_1_GetResult16(); // << NOTE! This is NOT a voltage or a weigh
 204              		.loc 1 59 0
 205 0012 FFF7FEFF 		bl	ADC_SAR_1_GetResult16
 206              	.LVL25:
  60:Loadcell.c    ****             result_gram = (((float)result-startoffset)/factor); // Konvertering til gram
 207              		.loc 1 60 0
 208 0016 80B2     		uxth	r0, r0
 209 0018 FFF7FEFF 		bl	__aeabi_ui2f
 210              	.LVL26:
 211 001c 3946     		mov	r1, r7
 212 001e FFF7FEFF 		bl	__aeabi_fsub
 213              	.LVL27:
 214 0022 3146     		mov	r1, r6
 215 0024 FFF7FEFF 		bl	__aeabi_fdiv
 216              	.LVL28:
  61:Loadcell.c    ****             result_gram -=zeroDriftOffset;
 217              		.loc 1 61 0
 218 0028 094B     		ldr	r3, .L15
 219 002a 1968     		ldr	r1, [r3]	@ float
 220 002c FFF7FEFF 		bl	__aeabi_fsub
 221              	.LVL29:
 222 0030 0446     		mov	r4, r0
ARM GAS  C:\Users\deniz\AppData\Local\Temp\ccml7zNT.s 			page 6


 223              	.LVL30:
  62:Loadcell.c    ****             result_gram -=preload;
 224              		.loc 1 62 0
 225 0032 2846     		mov	r0, r5
 226              	.LVL31:
 227 0034 FFF7FEFF 		bl	__aeabi_i2f
 228              	.LVL32:
 229 0038 0146     		mov	r1, r0
 230 003a 2046     		mov	r0, r4
 231 003c FFF7FEFF 		bl	__aeabi_fsub
 232              	.LVL33:
 233 0040 0446     		mov	r4, r0
 234              	.LVL34:
 235              	.L12:
 236              	.LBE2:
  55:Loadcell.c    ****     {
 237              		.loc 1 55 0
 238 0042 0449     		ldr	r1, .L15+4
 239 0044 2046     		mov	r0, r4
 240 0046 FFF7FEFF 		bl	__aeabi_fcmplt
 241              	.LVL35:
 242 004a 0028     		cmp	r0, #0
 243 004c DDD1     		bne	.L13
  63:Loadcell.c    ****         }
  64:Loadcell.c    ****     }
  65:Loadcell.c    **** }
 244              		.loc 1 65 0
 245 004e F8BD     		pop	{r3, r4, r5, r6, r7, pc}
 246              	.LVL36:
 247              	.L16:
 248              		.align	2
 249              	.L15:
 250 0050 00000000 		.word	.LANCHOR0
 251 0054 00004842 		.word	1112014848
 252              		.cfi_endproc
 253              	.LFE66:
 254              		.size	wait_for_weight, .-wait_for_weight
 255              		.section	.text.readWeight,"ax",%progbits
 256              		.align	2
 257              		.global	readWeight
 258              		.thumb
 259              		.thumb_func
 260              		.type	readWeight, %function
 261              	readWeight:
 262              	.LFB67:
  66:Loadcell.c    **** 
  67:Loadcell.c    **** float readWeight(uint8_t repeats,float startoffset, float factor,uint8_t preload)
  68:Loadcell.c    **** {
 263              		.loc 1 68 0
 264              		.cfi_startproc
 265              		@ args = 0, pretend = 0, frame = 8
 266              		@ frame_needed = 1, uses_anonymous_args = 0
 267              	.LVL37:
 268 0000 2DE9F04F 		push	{r4, r5, r6, r7, r8, r9, r10, fp, lr}
 269              		.cfi_def_cfa_offset 36
 270              		.cfi_offset 4, -36
 271              		.cfi_offset 5, -32
ARM GAS  C:\Users\deniz\AppData\Local\Temp\ccml7zNT.s 			page 7


 272              		.cfi_offset 6, -28
 273              		.cfi_offset 7, -24
 274              		.cfi_offset 8, -20
 275              		.cfi_offset 9, -16
 276              		.cfi_offset 10, -12
 277              		.cfi_offset 11, -8
 278              		.cfi_offset 14, -4
 279 0004 83B0     		sub	sp, sp, #12
 280              		.cfi_def_cfa_offset 48
 281 0006 00AF     		add	r7, sp, #0
 282              		.cfi_def_cfa_register 7
 283 0008 0646     		mov	r6, r0
 284 000a 8A46     		mov	r10, r1
 285 000c 9146     		mov	r9, r2
 286 000e 7B60     		str	r3, [r7, #4]
 287              	.LVL38:
  69:Loadcell.c    ****     uint8_t repeating = repeats;
  70:Loadcell.c    ****     float result_array[repeating];
 288              		.loc 1 70 0
 289 0010 0546     		mov	r5, r0
 290              	.LVL39:
 291 0012 8300     		lsls	r3, r0, #2
 292              	.LVL40:
 293 0014 0A33     		adds	r3, r3, #10
 294 0016 23F00703 		bic	r3, r3, #7
 295 001a ADEB030D 		sub	sp, sp, r3
 296 001e EB46     		mov	fp, sp
 297              	.LVL41:
  71:Loadcell.c    ****     float result_gram;
  72:Loadcell.c    ****     float result=0;
  73:Loadcell.c    ****     
  74:Loadcell.c    ****     int i=0;
 298              		.loc 1 74 0
 299 0020 0024     		movs	r4, #0
  72:Loadcell.c    ****     
 300              		.loc 1 72 0
 301 0022 4FF00008 		mov	r8, #0
  75:Loadcell.c    ****             while(i<repeating)
 302              		.loc 1 75 0
 303 0026 0FE0     		b	.L19
 304              	.LVL42:
 305              	.L20:
  76:Loadcell.c    ****             {
  77:Loadcell.c    ****                 if (ADC_SAR_1_IsEndConversion(ADC_SAR_1_WAIT_FOR_RESULT))
 306              		.loc 1 77 0
 307 0028 0020     		movs	r0, #0
 308 002a FFF7FEFF 		bl	ADC_SAR_1_IsEndConversion
 309              	.LVL43:
 310 002e 58B1     		cbz	r0, .L19
  78:Loadcell.c    ****                 {
  79:Loadcell.c    ****                 result_array[i]=ADC_SAR_1_GetResult16();
 311              		.loc 1 79 0
 312 0030 FFF7FEFF 		bl	ADC_SAR_1_GetResult16
 313              	.LVL44:
 314 0034 FFF7FEFF 		bl	__aeabi_i2f
 315              	.LVL45:
 316 0038 0146     		mov	r1, r0
ARM GAS  C:\Users\deniz\AppData\Local\Temp\ccml7zNT.s 			page 8


 317 003a 4BF82400 		str	r0, [fp, r4, lsl #2]	@ float
  80:Loadcell.c    ****                 result+=result_array[i];
 318              		.loc 1 80 0
 319 003e 4046     		mov	r0, r8
 320 0040 FFF7FEFF 		bl	__aeabi_fadd
 321              	.LVL46:
 322 0044 8046     		mov	r8, r0
 323              	.LVL47:
  81:Loadcell.c    ****                 i++;
 324              		.loc 1 81 0
 325 0046 0134     		adds	r4, r4, #1
 326              	.LVL48:
 327              	.L19:
  75:Loadcell.c    ****             {
 328              		.loc 1 75 0
 329 0048 AC42     		cmp	r4, r5
 330 004a EDDB     		blt	.L20
  82:Loadcell.c    ****                 }
  83:Loadcell.c    ****                 
  84:Loadcell.c    ****             }
  85:Loadcell.c    ****             
  86:Loadcell.c    ****             result=result/repeating; 
 331              		.loc 1 86 0
 332 004c 3046     		mov	r0, r6
 333 004e FFF7FEFF 		bl	__aeabi_i2f
 334              	.LVL49:
 335 0052 0146     		mov	r1, r0
 336 0054 4046     		mov	r0, r8
 337 0056 FFF7FEFF 		bl	__aeabi_fdiv
 338              	.LVL50:
  87:Loadcell.c    ****             result_gram = (((float)result-startoffset)/factor); // Konvertering til gram
 339              		.loc 1 87 0
 340 005a 5146     		mov	r1, r10
 341 005c FFF7FEFF 		bl	__aeabi_fsub
 342              	.LVL51:
 343 0060 4946     		mov	r1, r9
 344 0062 FFF7FEFF 		bl	__aeabi_fdiv
 345              	.LVL52:
  88:Loadcell.c    ****             
  89:Loadcell.c    ****     return result_gram-zeroDriftOffset-(float)preload;
 346              		.loc 1 89 0
 347 0066 084B     		ldr	r3, .L22
 348 0068 1968     		ldr	r1, [r3]	@ float
 349 006a FFF7FEFF 		bl	__aeabi_fsub
 350              	.LVL53:
 351 006e 0446     		mov	r4, r0
 352              	.LVL54:
 353 0070 7868     		ldr	r0, [r7, #4]
 354 0072 FFF7FEFF 		bl	__aeabi_ui2f
 355              	.LVL55:
 356 0076 0146     		mov	r1, r0
 357 0078 2046     		mov	r0, r4
 358 007a FFF7FEFF 		bl	__aeabi_fsub
 359              	.LVL56:
  90:Loadcell.c    **** }
 360              		.loc 1 90 0
 361 007e 0C37     		adds	r7, r7, #12
ARM GAS  C:\Users\deniz\AppData\Local\Temp\ccml7zNT.s 			page 9


 362              		.cfi_def_cfa_offset 36
 363 0080 BD46     		mov	sp, r7
 364              		.cfi_def_cfa_register 13
 365              		@ sp needed
 366 0082 BDE8F08F 		pop	{r4, r5, r6, r7, r8, r9, r10, fp, pc}
 367              	.LVL57:
 368              	.L23:
 369 0086 00BF     		.align	2
 370              	.L22:
 371 0088 00000000 		.word	.LANCHOR0
 372              		.cfi_endproc
 373              	.LFE67:
 374              		.size	readWeight, .-readWeight
 375              		.global	zeroDriftOffset
 376              		.bss
 377              		.align	2
 378              		.set	.LANCHOR0,. + 0
 379              		.type	zeroDriftOffset, %object
 380              		.size	zeroDriftOffset, 4
 381              	zeroDriftOffset:
 382 0000 00000000 		.space	4
 383              		.text
 384              	.Letext0:
 385              		.file 2 "c:\\program files (x86)\\cypress\\psoc creator\\4.4\\psoc creator\\import\\gnu\\arm\\5.4.
 386              		.file 3 "c:\\program files (x86)\\cypress\\psoc creator\\4.4\\psoc creator\\import\\gnu\\arm\\5.4.
 387              		.file 4 "Generated_Source\\PSoC5/core_cm3.h"
 388              		.file 5 "Generated_Source\\PSoC5/ADC_SAR_1.h"