ARM GAS  C:\Users\jespe\AppData\Local\Temp\ccTy8y9B.s 			page 1


   1              		.syntax unified
   2              		.cpu cortex-m3
   3              		.fpu softvfp
   4              		.eabi_attribute 20, 1
   5              		.eabi_attribute 21, 1
   6              		.eabi_attribute 23, 3
   7              		.eabi_attribute 24, 1
   8              		.eabi_attribute 25, 1
   9              		.eabi_attribute 26, 1
  10              		.eabi_attribute 30, 1
  11              		.eabi_attribute 34, 1
  12              		.eabi_attribute 18, 4
  13              		.thumb
  14              		.syntax unified
  15              		.file	"main.c"
  16              		.text
  17              	.Ltext0:
  18              		.cfi_sections	.debug_frame
  19              		.global	__aeabi_f2uiz
  20              		.section	.text.main,"ax",%progbits
  21              		.align	2
  22              		.global	main
  23              		.thumb
  24              		.thumb_func
  25              		.type	main, %function
  26              	main:
  27              	.LFB64:
  28              		.file 1 "main.c"
   1:main.c        **** #include "project.h"
   2:main.c        **** 
   3:main.c        **** #include "Loadcell.h"
   4:main.c        **** #include "Timer.h"
   5:main.c        **** #include "FlagMotor.h"
   6:main.c        **** #include "led.h"
   7:main.c        **** #include "spi_Slave.h"
   8:main.c        **** 
   9:main.c        **** 
  10:main.c        **** #include <stdio.h>
  11:main.c        **** 
  12:main.c        **** 
  13:main.c        **** CY_ISR_PROTO(ISR_SPI_rx_handler);
  14:main.c        **** void handleByteReceived(uint8_t byteReceived);
  15:main.c        **** static int UCstate=0;
  16:main.c        **** uint8_t receivedData = 0;
  17:main.c        **** uint32 roundedNum = 0;
  18:main.c        **** uint32_t hardcode_tid = 6300;
  19:main.c        **** 
  20:main.c        **** uint32 tid=0;
  21:main.c        **** uint8_t minutter = 0;
  22:main.c        **** uint8_t sekunder = 0;
  23:main.c        **** uint8_t milliSekunder = 0;
  24:main.c        **** uint8_t spilleterslut = 0;
  25:main.c        **** 
  26:main.c        **** //uint8_t roundNum(uint8_t num) { 
  27:main.c        **** //       int temp = 0;
  28:main.c        **** //        
  29:main.c        **** //        temp = num % 100;
ARM GAS  C:\Users\jespe\AppData\Local\Temp\ccTy8y9B.s 			page 2


  30:main.c        **** //        
  31:main.c        **** //        return num - temp;
  32:main.c        **** //    }
  33:main.c        **** 
  34:main.c        **** int main(void)
  35:main.c        **** {
  29              		.loc 1 35 0
  30              		.cfi_startproc
  31              		@ args = 0, pretend = 0, frame = 0
  32              		@ frame_needed = 0, uses_anonymous_args = 0
  33 0000 38B5     		push	{r3, r4, r5, lr}
  34              		.cfi_def_cfa_offset 16
  35              		.cfi_offset 3, -16
  36              		.cfi_offset 4, -12
  37              		.cfi_offset 5, -8
  38              		.cfi_offset 14, -4
  36:main.c        ****     CyGlobalIntEnable; /* Enable global interrupts. */
  39              		.loc 1 36 0
  40              		.syntax unified
  41              	@ 36 "main.c" 1
  42 0002 62B6     		CPSIE   i
  43              	@ 0 "" 2
  37:main.c        ****     SPI_RX_ISR_StartEx(ISR_SPI_rx_handler);
  44              		.loc 1 37 0
  45              		.thumb
  46              		.syntax unified
  47 0004 3D48     		ldr	r0, .L10
  48 0006 FFF7FEFF 		bl	SPI_RX_ISR_StartEx
  49              	.LVL0:
  38:main.c        **** 
  39:main.c        ****     // Initialize SPI
  40:main.c        ****     InitializeSPI(); // Make sure this function is correctly configuring the SPI module
  50              		.loc 1 40 0
  51 000a FFF7FEFF 		bl	InitializeSPI
  52              	.LVL1:
  41:main.c        ****     
  42:main.c        ****     
  43:main.c        ****     //Initiering
  44:main.c        ****     initLoadcell();
  53              		.loc 1 44 0
  54 000e FFF7FEFF 		bl	initLoadcell
  55              	.LVL2:
  45:main.c        ****     
  46:main.c        ****     //Variable definationer
  47:main.c        ****     int repeats = 50;
  48:main.c        ****     float startoffset = 164.5;
  49:main.c        ****     float factor = 4.672;
  50:main.c        ****     int preload=0;
  51:main.c        ****     uint16_t Result_gram;
  52:main.c        ****     uint8_t gameReady=0;
  53:main.c        ****     uint8_t timestop=0;
  54:main.c        ****     uint8_t dnf=0;
  55:main.c        ****     char mode='h';
  56:main.c        ****      
  57:main.c        ****     homeStepper(mode);
  56              		.loc 1 57 0
  57 0012 6820     		movs	r0, #104
ARM GAS  C:\Users\jespe\AppData\Local\Temp\ccTy8y9B.s 			page 3


  58 0014 FFF7FEFF 		bl	homeStepper
  59              	.LVL3:
  58:main.c        ****     stopFlagMotor();
  60              		.loc 1 58 0
  61 0018 FFF7FEFF 		bl	stopFlagMotor
  62              	.LVL4:
  63              	.L7:
  59:main.c        ****    
  60:main.c        ****     for(;;)
  61:main.c        ****     {
  62:main.c        ****            //UC1 Game preperation
  63:main.c        ****     //Øl fjernet
  64:main.c        ****     if(UCstate==1)
  64              		.loc 1 64 0
  65 001c 384B     		ldr	r3, .L10+4
  66 001e 1B68     		ldr	r3, [r3]
  67 0020 012B     		cmp	r3, #1
  68 0022 17D1     		bne	.L2
  65:main.c        ****     
  66:main.c        ****     {
  67:main.c        ****     offset_Zerodrift_calibrate( repeats,  startoffset,  factor, preload);
  69              		.loc 1 67 0
  70 0024 374D     		ldr	r5, .L10+8
  71 0026 384C     		ldr	r4, .L10+12
  72 0028 0023     		movs	r3, #0
  73 002a 2A46     		mov	r2, r5
  74 002c 2146     		mov	r1, r4
  75 002e 3220     		movs	r0, #50
  76 0030 FFF7FEFF 		bl	offset_Zerodrift_calibrate
  77              	.LVL5:
  78              	.LBB2:
  68:main.c        ****     {
  69:main.c        ****     float zerodriftOffset = readWeight( repeats,startoffset,  factor, preload);
  79              		.loc 1 69 0
  80 0034 0023     		movs	r3, #0
  81 0036 2A46     		mov	r2, r5
  82 0038 2146     		mov	r1, r4
  83 003a 3220     		movs	r0, #50
  84 003c FFF7FEFF 		bl	readWeight
  85              	.LVL6:
  86              	.LBE2:
  70:main.c        ****     //snprintf(uartBuffer,sizeof(uartBuffer),"Read value (g) %f\r\n ", zerodriftOffset);
  71:main.c        ****     //UART_1_PutString(uartBuffer);
  72:main.c        ****     }
  73:main.c        ****     
  74:main.c        ****     homeStepper(mode);
  87              		.loc 1 74 0
  88 0040 6820     		movs	r0, #104
  89 0042 FFF7FEFF 		bl	homeStepper
  90              	.LVL7:
  75:main.c        ****     stopFlagMotor();
  91              		.loc 1 75 0
  92 0046 FFF7FEFF 		bl	stopFlagMotor
  93              	.LVL8:
  76:main.c        ****     UCstate=0;
  94              		.loc 1 76 0
  95 004a 2D4B     		ldr	r3, .L10+4
ARM GAS  C:\Users\jespe\AppData\Local\Temp\ccTy8y9B.s 			page 4


  96 004c 0022     		movs	r2, #0
  97 004e 1A60     		str	r2, [r3]
  77:main.c        ****     spilleterslut = 0x4;
  98              		.loc 1 77 0
  99 0050 0422     		movs	r2, #4
 100 0052 1A71     		strb	r2, [r3, #4]
 101              	.L2:
  78:main.c        ****     }
  79:main.c        ****     
  80:main.c        ****     //der er sat en genstand på platform
  81:main.c        ****     if(UCstate==2)
 102              		.loc 1 81 0
 103 0054 2A4B     		ldr	r3, .L10+4
 104 0056 1B68     		ldr	r3, [r3]
 105 0058 022B     		cmp	r3, #2
 106 005a 15D1     		bne	.L3
  82:main.c        ****     {
  83:main.c        ****     wait_for_weight(startoffset, factor,preload);//venter på der bliver plasseret en øl
 107              		.loc 1 83 0
 108 005c 294D     		ldr	r5, .L10+8
 109 005e 2A4C     		ldr	r4, .L10+12
 110 0060 0022     		movs	r2, #0
 111 0062 2946     		mov	r1, r5
 112 0064 2046     		mov	r0, r4
 113 0066 FFF7FEFF 		bl	wait_for_weight
 114              	.LVL9:
  84:main.c        ****     CyDelay(3000); //delay så flasken flader til ro
 115              		.loc 1 84 0
 116 006a 40F6B830 		movw	r0, #3000
 117 006e FFF7FEFF 		bl	CyDelay
 118              	.LVL10:
  85:main.c        ****     Result_gram = readWeight( repeats,startoffset, factor, preload);
 119              		.loc 1 85 0
 120 0072 0023     		movs	r3, #0
 121 0074 2A46     		mov	r2, r5
 122 0076 2146     		mov	r1, r4
 123 0078 3220     		movs	r0, #50
 124 007a FFF7FEFF 		bl	readWeight
 125              	.LVL11:
  86:main.c        ****     {
  87:main.c        ****     
  88:main.c        ****     //snprintf(uartBuffer,sizeof(uartBuffer),"Read value (g) %d\r\n ", Result_gram);
  89:main.c        ****     //UART_1_PutString(uartBuffer);
  90:main.c        ****     
  91:main.c        ****     }
  92:main.c        ****     if(Result_gram>650)
  93:main.c        ****     gameReady=1;
  94:main.c        ****     else
  95:main.c        ****     gameReady=0;
  96:main.c        ****     
  97:main.c        ****     {
  98:main.c        ****     //snprintf(uartBuffer,sizeof(uartBuffer),"gameReady (g) %d\r\n ", gameReady);
  99:main.c        ****     //UART_1_PutString(uartBuffer);
 100:main.c        ****     }
 101:main.c        ****     //sendSPi(receivedData);
 102:main.c        ****     UCstate=0;
 126              		.loc 1 102 0
ARM GAS  C:\Users\jespe\AppData\Local\Temp\ccTy8y9B.s 			page 5


 127 007e 204B     		ldr	r3, .L10+4
 128 0080 0022     		movs	r2, #0
 129 0082 1A60     		str	r2, [r3]
 103:main.c        ****     spilleterslut = 0x4;
 130              		.loc 1 103 0
 131 0084 0422     		movs	r2, #4
 132 0086 1A71     		strb	r2, [r3, #4]
 133              	.L3:
 104:main.c        ****     }
 105:main.c        ****      
 106:main.c        ****     //send signal til RPI, Hvis GameReady er 1 så er øllen godkendt
 107:main.c        ****     
 108:main.c        ****     //UC2 play game
 109:main.c        ****     
 110:main.c        ****     //Dermodtages GO signal
 111:main.c        ****     
 112:main.c        ****     if(UCstate==3)
 134              		.loc 1 112 0
 135 0088 1D4B     		ldr	r3, .L10+4
 136 008a 1B68     		ldr	r3, [r3]
 137 008c 032B     		cmp	r3, #3
 138 008e 22D1     		bne	.L4
 113:main.c        ****     {
 114:main.c        ****     
 115:main.c        ****     Result_gram = readWeight(repeats,startoffset, factor, preload);
 139              		.loc 1 115 0
 140 0090 0023     		movs	r3, #0
 141 0092 1C4A     		ldr	r2, .L10+8
 142 0094 1C49     		ldr	r1, .L10+12
 143 0096 3220     		movs	r0, #50
 144 0098 FFF7FEFF 		bl	readWeight
 145              	.LVL12:
 146 009c FFF7FEFF 		bl	__aeabi_f2uiz
 147              	.LVL13:
 148 00a0 80B2     		uxth	r0, r0
 149              	.LVL14:
 150 00a2 08E0     		b	.L5
 151              	.L6:
 116:main.c        ****         {//print
 117:main.c        ****         //snprintf(uartBuffer,sizeof(uartBuffer),"Read value (g) %d\r\n ", Result_gram);
 118:main.c        ****         //UART_1_PutString(uartBuffer);
 119:main.c        ****         }
 120:main.c        ****     if(Result_gram<10)
 121:main.c        ****         dnf=1;
 122:main.c        ****     else
 123:main.c        ****         dnf=0;
 124:main.c        ****         {//print
 125:main.c        ****         //snprintf(uartBuffer,sizeof(uartBuffer),"Dnf (g) %d\r\n ", dnf);
 126:main.c        ****         //UART_1_PutString(uartBuffer);
 127:main.c        ****         }
 128:main.c        ****     //startTidsTagning();//timer startes
 129:main.c        ****     
 130:main.c        ****     while(Result_gram>10)
 131:main.c        ****     Result_gram = readWeight(repeats,startoffset, factor, preload);
 152              		.loc 1 131 0
 153 00a4 0023     		movs	r3, #0
 154 00a6 174A     		ldr	r2, .L10+8
ARM GAS  C:\Users\jespe\AppData\Local\Temp\ccTy8y9B.s 			page 6


 155 00a8 1749     		ldr	r1, .L10+12
 156 00aa 3220     		movs	r0, #50
 157              	.LVL15:
 158 00ac FFF7FEFF 		bl	readWeight
 159              	.LVL16:
 160 00b0 FFF7FEFF 		bl	__aeabi_f2uiz
 161              	.LVL17:
 162 00b4 80B2     		uxth	r0, r0
 163              	.LVL18:
 164              	.L5:
 130:main.c        ****     Result_gram = readWeight(repeats,startoffset, factor, preload);
 165              		.loc 1 130 0
 166 00b6 0A28     		cmp	r0, #10
 167 00b8 F4D8     		bhi	.L6
 132:main.c        ****     //CyDelay(65250);
 133:main.c        ****     
 134:main.c        ****     tid = 72670;
 168              		.loc 1 134 0
 169 00ba 114C     		ldr	r4, .L10+4
 135:main.c        ****     
 136:main.c        ****     //wait_for_weight(startoffset, factor,preload);//venter på der bliver plasseret en øl
 137:main.c        ****     
 138:main.c        ****     
 139:main.c        ****     //tid = stopTidsTagning(); //tid stoppes 
 140:main.c        ****     
 141:main.c        ****     
 142:main.c        ****     
 143:main.c        ****     roundedNum = (tid + 50) / 100 * 100;//rundes af til nærmeste 100 ms
 170              		.loc 1 143 0
 171 00bc 134B     		ldr	r3, .L10+16
 172 00be E360     		str	r3, [r4, #12]
 144:main.c        ****     tid = roundedNum;
 173              		.loc 1 144 0
 174 00c0 A360     		str	r3, [r4, #8]
 145:main.c        ****    
 146:main.c        ****         {//print
 147:main.c        ****         //snprintf(uartBuffer,sizeof(uartBuffer),"tid (g) %d\r\n ", tid);
 148:main.c        ****         //UART_1_PutString(uartBuffer);
 149:main.c        ****         //snprintf(uartBuffer,sizeof(uartBuffer),"tid (g) %d\r\n ", roundedNum);
 150:main.c        ****         //UART_1_PutString(uartBuffer);
 151:main.c        ****         }
 152:main.c        ****     //tid sendes
 153:main.c        ****     
 154:main.c        ****     
 155:main.c        ****     //CyDelay(5000);
 156:main.c        ****     Result_gram = readWeight(repeats,startoffset, factor, preload);
 175              		.loc 1 156 0
 176 00c2 0023     		movs	r3, #0
 177 00c4 0F4A     		ldr	r2, .L10+8
 178 00c6 1049     		ldr	r1, .L10+12
 179 00c8 3220     		movs	r0, #50
 180              	.LVL19:
 181 00ca FFF7FEFF 		bl	readWeight
 182              	.LVL20:
 157:main.c        ****         {//print
 158:main.c        ****         //snprintf(uartBuffer,sizeof(uartBuffer),"Read value (g) %d\r\n ", Result_gram);
 159:main.c        ****         //UART_1_PutString(uartBuffer);
ARM GAS  C:\Users\jespe\AppData\Local\Temp\ccTy8y9B.s 			page 7


 160:main.c        ****         }
 161:main.c        ****     if(Result_gram>310)
 162:main.c        ****         dnf=1;
 163:main.c        ****     //dnf value sendes
 164:main.c        ****     
 165:main.c        ****         {//print
 166:main.c        ****         //snprintf(uartBuffer,sizeof(uartBuffer),"Dnf (g) %d\r\n ", dnf);
 167:main.c        ****         //UART_1_PutString(uartBuffer);
 168:main.c        ****         }
 169:main.c        ****     UCstate=0;
 183              		.loc 1 169 0
 184 00ce 0023     		movs	r3, #0
 185 00d0 2360     		str	r3, [r4]
 170:main.c        ****      spilleterslut = 0x4;   
 186              		.loc 1 170 0
 187 00d2 0423     		movs	r3, #4
 188 00d4 2371     		strb	r3, [r4, #4]
 189              	.L4:
 171:main.c        ****     }
 172:main.c        ****     
 173:main.c        ****     //modtager win signal fra RPI
 174:main.c        ****     if(UCstate==4)
 190              		.loc 1 174 0
 191 00d6 0A4B     		ldr	r3, .L10+4
 192 00d8 1B68     		ldr	r3, [r3]
 193 00da 042B     		cmp	r3, #4
 194 00dc 9ED1     		bne	.L7
 175:main.c        ****     {
 176:main.c        ****     
 177:main.c        ****     stepperdriver_rotateTo(90, mode);
 195              		.loc 1 177 0
 196 00de 6821     		movs	r1, #104
 197 00e0 5A20     		movs	r0, #90
 198 00e2 FFF7FEFF 		bl	stepperdriver_rotateTo
 199              	.LVL21:
 178:main.c        ****     stopFlagMotor();
 200              		.loc 1 178 0
 201 00e6 FFF7FEFF 		bl	stopFlagMotor
 202              	.LVL22:
 179:main.c        ****     sendSPi(receivedData);
 203              		.loc 1 179 0
 204 00ea 054C     		ldr	r4, .L10+4
 205 00ec 207C     		ldrb	r0, [r4, #16]	@ zero_extendqisi2
 206 00ee FFF7FEFF 		bl	sendSPi
 207              	.LVL23:
 180:main.c        ****     UCstate=0;
 208              		.loc 1 180 0
 209 00f2 0023     		movs	r3, #0
 210 00f4 2360     		str	r3, [r4]
 181:main.c        ****     spilleterslut = 0x4;
 211              		.loc 1 181 0
 212 00f6 0423     		movs	r3, #4
 213 00f8 2371     		strb	r3, [r4, #4]
 214 00fa 8FE7     		b	.L7
 215              	.L11:
 216              		.align	2
 217              	.L10:
ARM GAS  C:\Users\jespe\AppData\Local\Temp\ccTy8y9B.s 			page 8


 218 00fc 00000000 		.word	ISR_SPI_rx_handler
 219 0100 00000000 		.word	.LANCHOR0
 220 0104 06819540 		.word	1083539718
 221 0108 00802443 		.word	1126465536
 222 010c FC1B0100 		.word	72700
 223              		.cfi_endproc
 224              	.LFE64:
 225              		.size	main, .-main
 226              		.section	.text.handleByteReceived,"ax",%progbits
 227              		.align	2
 228              		.global	handleByteReceived
 229              		.thumb
 230              		.thumb_func
 231              		.type	handleByteReceived, %function
 232              	handleByteReceived:
 233              	.LFB65:
 182:main.c        ****     }
 183:main.c        ****     }
 184:main.c        ****     
 185:main.c        **** }
 186:main.c        **** 
 187:main.c        **** void handleByteReceived(uint8_t byteReceived)
 188:main.c        **** {
 234              		.loc 1 188 0
 235              		.cfi_startproc
 236              		@ args = 0, pretend = 0, frame = 0
 237              		@ frame_needed = 0, uses_anonymous_args = 0
 238              	.LVL24:
 239 0000 10B5     		push	{r4, lr}
 240              		.cfi_def_cfa_offset 8
 241              		.cfi_offset 4, -8
 242              		.cfi_offset 14, -4
 189:main.c        ****     switch(byteReceived)
 243              		.loc 1 189 0
 244 0002 AA28     		cmp	r0, #170
 245 0004 0ED0     		beq	.L14
 246 0006 06D8     		bhi	.L15
 247 0008 0328     		cmp	r0, #3
 248 000a 23D0     		beq	.L16
 249 000c 0428     		cmp	r0, #4
 250 000e 29D0     		beq	.L17
 251 0010 0228     		cmp	r0, #2
 252 0012 2ED1     		bne	.L12
 253 0014 16E0     		b	.L18
 254              	.L15:
 255 0016 CC28     		cmp	r0, #204
 256 0018 0CD0     		beq	.L19
 257 001a DD28     		cmp	r0, #221
 258 001c 0ED0     		beq	.L20
 259 001e BB28     		cmp	r0, #187
 260 0020 27D1     		bne	.L12
 261 0022 03E0     		b	.L21
 262              	.L14:
 190:main.c        ****     {
 191:main.c        ****         case 0xAA :
 192:main.c        ****         {
 193:main.c        ****             //Kalibrering af vægten samt steppermotor
ARM GAS  C:\Users\jespe\AppData\Local\Temp\ccTy8y9B.s 			page 9


 194:main.c        ****             UCstate=1;
 263              		.loc 1 194 0
 264 0024 0122     		movs	r2, #1
 265 0026 134B     		ldr	r3, .L23
 266 0028 1A60     		str	r2, [r3]
 195:main.c        ****             
 196:main.c        ****         }
 197:main.c        ****         break;
 267              		.loc 1 197 0
 268 002a 10BD     		pop	{r4, pc}
 269              	.L21:
 198:main.c        ****         case 0xBB :
 199:main.c        ****         {
 200:main.c        ****             //Gameready - venter, læser samt tjekker på vægten
 201:main.c        ****             UCstate=2;
 270              		.loc 1 201 0
 271 002c 0222     		movs	r2, #2
 272 002e 114B     		ldr	r3, .L23
 273 0030 1A60     		str	r2, [r3]
 202:main.c        ****             
 203:main.c        ****         }
 204:main.c        ****         break;
 274              		.loc 1 204 0
 275 0032 10BD     		pop	{r4, pc}
 276              	.L19:
 205:main.c        ****         case 0xCC :
 206:main.c        ****         {
 207:main.c        ****             //Loop for aflæsning af vægt - Venter på, at der kommer vægt på vægten / tjekker 
 208:main.c        ****             UCstate=3;
 277              		.loc 1 208 0
 278 0034 0322     		movs	r2, #3
 279 0036 0F4B     		ldr	r3, .L23
 280 0038 1A60     		str	r2, [r3]
 209:main.c        ****             //sendTimeOverSPI();
 210:main.c        ****         }
 211:main.c        ****         break;
 281              		.loc 1 211 0
 282 003a 10BD     		pop	{r4, pc}
 283              	.L20:
 212:main.c        ****         case 0xDD :
 213:main.c        ****         {
 214:main.c        ****             //Flagmotor
 215:main.c        ****             UCstate = 4;
 284              		.loc 1 215 0
 285 003c 0422     		movs	r2, #4
 286 003e 0D4B     		ldr	r3, .L23
 287 0040 1A60     		str	r2, [r3]
 216:main.c        ****             
 217:main.c        ****         }
 218:main.c        ****         
 219:main.c        ****         break;
 288              		.loc 1 219 0
 289 0042 10BD     		pop	{r4, pc}
 290              	.L18:
 220:main.c        ****         case 0x2 :
 221:main.c        ****         {
 222:main.c        ****             minutter = convertMinutter(tid);
ARM GAS  C:\Users\jespe\AppData\Local\Temp\ccTy8y9B.s 			page 10


 291              		.loc 1 222 0
 292 0044 0B4C     		ldr	r4, .L23
 293 0046 A068     		ldr	r0, [r4, #8]
 294              	.LVL25:
 295 0048 FFF7FEFF 		bl	convertMinutter
 296              	.LVL26:
 297 004c 6074     		strb	r0, [r4, #17]
 223:main.c        ****             sendSPi(minutter); 
 298              		.loc 1 223 0
 299 004e FFF7FEFF 		bl	sendSPi
 300              	.LVL27:
 224:main.c        ****         }
 225:main.c        ****         
 226:main.c        ****         break;
 301              		.loc 1 226 0
 302 0052 10BD     		pop	{r4, pc}
 303              	.LVL28:
 304              	.L16:
 227:main.c        ****         case 0x3 :
 228:main.c        ****         {
 229:main.c        ****             sekunder = convertSekunder(tid);
 305              		.loc 1 229 0
 306 0054 074C     		ldr	r4, .L23
 307 0056 A068     		ldr	r0, [r4, #8]
 308              	.LVL29:
 309 0058 FFF7FEFF 		bl	convertSekunder
 310              	.LVL30:
 311 005c A074     		strb	r0, [r4, #18]
 230:main.c        ****             sendSPi(sekunder);
 312              		.loc 1 230 0
 313 005e FFF7FEFF 		bl	sendSPi
 314              	.LVL31:
 231:main.c        ****         }
 232:main.c        ****         
 233:main.c        ****         break;
 315              		.loc 1 233 0
 316 0062 10BD     		pop	{r4, pc}
 317              	.LVL32:
 318              	.L17:
 234:main.c        ****         case 0x4 :
 235:main.c        ****         {
 236:main.c        ****             milliSekunder = convertMillisekunder(tid);
 319              		.loc 1 236 0
 320 0064 034C     		ldr	r4, .L23
 321 0066 A068     		ldr	r0, [r4, #8]
 322              	.LVL33:
 323 0068 FFF7FEFF 		bl	convertMillisekunder
 324              	.LVL34:
 325 006c E074     		strb	r0, [r4, #19]
 237:main.c        ****             sendSPi(milliSekunder);
 326              		.loc 1 237 0
 327 006e FFF7FEFF 		bl	sendSPi
 328              	.LVL35:
 329              	.L12:
 330 0072 10BD     		pop	{r4, pc}
 331              	.L24:
 332              		.align	2
ARM GAS  C:\Users\jespe\AppData\Local\Temp\ccTy8y9B.s 			page 11


 333              	.L23:
 334 0074 00000000 		.word	.LANCHOR0
 335              		.cfi_endproc
 336              	.LFE65:
 337              		.size	handleByteReceived, .-handleByteReceived
 338              		.section	.text.ISR_SPI_rx_handler,"ax",%progbits
 339              		.align	2
 340              		.global	ISR_SPI_rx_handler
 341              		.thumb
 342              		.thumb_func
 343              		.type	ISR_SPI_rx_handler, %function
 344              	ISR_SPI_rx_handler:
 345              	.LFB66:
 238:main.c        ****         }
 239:main.c        ****      
 240:main.c        ****         break;
 241:main.c        ****         default :
 242:main.c        ****         {
 243:main.c        ****             // nothing
 244:main.c        ****         }
 245:main.c        ****         break;
 246:main.c        ****     }
 247:main.c        **** }
 248:main.c        **** 
 249:main.c        **** 
 250:main.c        **** CY_ISR(ISR_SPI_rx_handler)
 251:main.c        **** {
 346              		.loc 1 251 0
 347              		.cfi_startproc
 348              		@ args = 0, pretend = 0, frame = 0
 349              		@ frame_needed = 0, uses_anonymous_args = 0
 350 0000 38B5     		push	{r3, r4, r5, lr}
 351              		.cfi_def_cfa_offset 16
 352              		.cfi_offset 3, -16
 353              		.cfi_offset 4, -12
 354              		.cfi_offset 5, -8
 355              		.cfi_offset 14, -4
 252:main.c        ****     uint8_t receivedData = modtagetSPi();
 356              		.loc 1 252 0
 357 0002 FFF7FEFF 		bl	modtagetSPi
 358              	.LVL36:
 359 0006 0546     		mov	r5, r0
 360              	.LVL37:
 253:main.c        ****     
 254:main.c        ****     if(receivedData == 0x1)
 361              		.loc 1 254 0
 362 0008 0128     		cmp	r0, #1
 363 000a 0DD1     		bne	.L27
 364 000c 06E0     		b	.L29
 365              	.LVL38:
 366              	.L28:
 367              	.LBB3:
 255:main.c        ****     {            
 256:main.c        ****             for (uint8_t i = 0; i < 2; i++){
 257:main.c        ****                 sendSPi(spilleterslut); 
 368              		.loc 1 257 0 discriminator 3
 369 000e 084B     		ldr	r3, .L31
ARM GAS  C:\Users\jespe\AppData\Local\Temp\ccTy8y9B.s 			page 12


 370 0010 1879     		ldrb	r0, [r3, #4]	@ zero_extendqisi2
 371 0012 FFF7FEFF 		bl	sendSPi
 372              	.LVL39:
 256:main.c        ****                 sendSPi(spilleterslut); 
 373              		.loc 1 256 0 discriminator 3
 374 0016 0134     		adds	r4, r4, #1
 375              	.LVL40:
 376 0018 E4B2     		uxtb	r4, r4
 377              	.LVL41:
 378 001a 00E0     		b	.L26
 379              	.LVL42:
 380              	.L29:
 381              	.LBE3:
 382 001c 0024     		movs	r4, #0
 383              	.LVL43:
 384              	.L26:
 385              	.LBB4:
 256:main.c        ****                 sendSPi(spilleterslut); 
 386              		.loc 1 256 0 is_stmt 0 discriminator 1
 387 001e 012C     		cmp	r4, #1
 388 0020 F5D9     		bls	.L28
 389              	.LBE4:
 258:main.c        ****             }
 259:main.c        ****             
 260:main.c        ****         spilleterslut=0;
 390              		.loc 1 260 0 is_stmt 1
 391 0022 0022     		movs	r2, #0
 392 0024 024B     		ldr	r3, .L31
 393 0026 1A71     		strb	r2, [r3, #4]
 394              	.LVL44:
 395              	.L27:
 261:main.c        ****         
 262:main.c        ****     }
 263:main.c        ****     //Handling of recieved SPI data
 264:main.c        ****     handleByteReceived(receivedData);
 396              		.loc 1 264 0
 397 0028 2846     		mov	r0, r5
 398 002a FFF7FEFF 		bl	handleByteReceived
 399              	.LVL45:
 400 002e 38BD     		pop	{r3, r4, r5, pc}
 401              	.L32:
 402              		.align	2
 403              	.L31:
 404 0030 00000000 		.word	.LANCHOR0
 405              		.cfi_endproc
 406              	.LFE66:
 407              		.size	ISR_SPI_rx_handler, .-ISR_SPI_rx_handler
 408              		.global	spilleterslut
 409              		.global	milliSekunder
 410              		.global	sekunder
 411              		.global	minutter
 412              		.global	tid
 413              		.global	hardcode_tid
 414              		.global	roundedNum
 415              		.global	receivedData
 416              		.data
 417              		.align	2
ARM GAS  C:\Users\jespe\AppData\Local\Temp\ccTy8y9B.s 			page 13


 418              		.type	hardcode_tid, %object
 419              		.size	hardcode_tid, 4
 420              	hardcode_tid:
 421 0000 9C180000 		.word	6300
 422              		.bss
 423              		.align	2
 424              		.set	.LANCHOR0,. + 0
 425              		.type	UCstate, %object
 426              		.size	UCstate, 4
 427              	UCstate:
 428 0000 00000000 		.space	4
 429              		.type	spilleterslut, %object
 430              		.size	spilleterslut, 1
 431              	spilleterslut:
 432 0004 00       		.space	1
 433 0005 000000   		.space	3
 434              		.type	tid, %object
 435              		.size	tid, 4
 436              	tid:
 437 0008 00000000 		.space	4
 438              		.type	roundedNum, %object
 439              		.size	roundedNum, 4
 440              	roundedNum:
 441 000c 00000000 		.space	4
 442              		.type	receivedData, %object
 443              		.size	receivedData, 1
 444              	receivedData:
 445 0010 00       		.space	1
 446              		.type	minutter, %object
 447              		.size	minutter, 1
 448              	minutter:
 449 0011 00       		.space	1
 450              		.type	sekunder, %object
 451              		.size	sekunder, 1
 452              	sekunder:
 453 0012 00       		.space	1
 454              		.type	milliSekunder, %object
 455              		.size	milliSekunder, 1
 456              	milliSekunder:
 457 0013 00       		.space	1
 458              		.text
 459              	.Letext0:
 460              		.file 2 "c:\\program files (x86)\\cypress\\psoc creator\\4.2\\psoc creator\\import\\gnu\\arm\\5.4.
 461              		.file 3 "c:\\program files (x86)\\cypress\\psoc creator\\4.2\\psoc creator\\import\\gnu\\arm\\5.4.
 462              		.file 4 "Generated_Source\\PSoC5/cytypes.h"
 463              		.file 5 "Generated_Source\\PSoC5/core_cm3.h"
 464              		.file 6 "Loadcell.h"
 465              		.file 7 "Generated_Source\\PSoC5/SPI_RX_ISR.h"
 466              		.file 8 "spi_Slave.h"
 467              		.file 9 "FlagMotor.h"
 468              		.file 10 "Generated_Source\\PSoC5/CyLib.h"
 469              		.file 11 "Timer.h"