ARM GAS  C:\Users\jespe\AppData\Local\Temp\ccgNOQ6g.s 			page 1


   1              		.syntax unified
   2              		.cpu cortex-m3
   3              		.fpu softvfp
   4              		.eabi_attribute 20, 1
   5              		.eabi_attribute 21, 1
   6              		.eabi_attribute 23, 3
   7              		.eabi_attribute 24, 1
   8              		.eabi_attribute 25, 1
   9              		.eabi_attribute 26, 1
  10              		.eabi_attribute 30, 1
  11              		.eabi_attribute 34, 1
  12              		.eabi_attribute 18, 4
  13              		.thumb
  14              		.syntax unified
  15              		.file	"SPIS_2.c"
  16              		.text
  17              	.Ltext0:
  18              		.cfi_sections	.debug_frame
  19              		.section	.text.SPIS_2_Enable,"ax",%progbits
  20              		.align	2
  21              		.global	SPIS_2_Enable
  22              		.thumb
  23              		.thumb_func
  24              		.type	SPIS_2_Enable, %function
  25              	SPIS_2_Enable:
  26              	.LFB1:
  27              		.file 1 "Generated_Source\\PSoC5\\SPIS_2.c"
   1:Generated_Source\PSoC5/SPIS_2.c **** /*******************************************************************************
   2:Generated_Source\PSoC5/SPIS_2.c **** * File Name: SPIS_2.c
   3:Generated_Source\PSoC5/SPIS_2.c **** * Version 2.70
   4:Generated_Source\PSoC5/SPIS_2.c **** *
   5:Generated_Source\PSoC5/SPIS_2.c **** * Description:
   6:Generated_Source\PSoC5/SPIS_2.c **** *  This file provides all API functionality of the SPI Slave component.
   7:Generated_Source\PSoC5/SPIS_2.c **** *
   8:Generated_Source\PSoC5/SPIS_2.c **** * Note:
   9:Generated_Source\PSoC5/SPIS_2.c **** *  None.
  10:Generated_Source\PSoC5/SPIS_2.c **** *
  11:Generated_Source\PSoC5/SPIS_2.c **** ********************************************************************************
  12:Generated_Source\PSoC5/SPIS_2.c **** * Copyright 2008-2015, Cypress Semiconductor Corporation.  All rights reserved.
  13:Generated_Source\PSoC5/SPIS_2.c **** * You may use this file only in accordance with the license, terms, conditions,
  14:Generated_Source\PSoC5/SPIS_2.c **** * disclaimers, and limitations in the end user license agreement accompanying
  15:Generated_Source\PSoC5/SPIS_2.c **** * the software package with which this file was provided.
  16:Generated_Source\PSoC5/SPIS_2.c **** *******************************************************************************/
  17:Generated_Source\PSoC5/SPIS_2.c **** 
  18:Generated_Source\PSoC5/SPIS_2.c **** #include "SPIS_2_PVT.h"
  19:Generated_Source\PSoC5/SPIS_2.c **** 
  20:Generated_Source\PSoC5/SPIS_2.c **** #if (SPIS_2_TX_SOFTWARE_BUF_ENABLED)
  21:Generated_Source\PSoC5/SPIS_2.c **** 
  22:Generated_Source\PSoC5/SPIS_2.c ****     volatile uint8 SPIS_2_txBuffer[SPIS_2_TX_BUFFER_SIZE];
  23:Generated_Source\PSoC5/SPIS_2.c ****     volatile uint8 SPIS_2_txBufferRead;
  24:Generated_Source\PSoC5/SPIS_2.c ****     volatile uint8 SPIS_2_txBufferWrite;
  25:Generated_Source\PSoC5/SPIS_2.c ****     volatile uint8 SPIS_2_txBufferFull;
  26:Generated_Source\PSoC5/SPIS_2.c **** 
  27:Generated_Source\PSoC5/SPIS_2.c **** #endif /* SPIS_2_TX_SOFTWARE_BUF_ENABLED*/
  28:Generated_Source\PSoC5/SPIS_2.c **** 
  29:Generated_Source\PSoC5/SPIS_2.c **** #if (SPIS_2_RX_SOFTWARE_BUF_ENABLED)
  30:Generated_Source\PSoC5/SPIS_2.c **** 
ARM GAS  C:\Users\jespe\AppData\Local\Temp\ccgNOQ6g.s 			page 2


  31:Generated_Source\PSoC5/SPIS_2.c ****     volatile uint8 SPIS_2_rxBuffer[SPIS_2_RX_BUFFER_SIZE];
  32:Generated_Source\PSoC5/SPIS_2.c ****     volatile uint8 SPIS_2_rxBufferRead;
  33:Generated_Source\PSoC5/SPIS_2.c ****     volatile uint8 SPIS_2_rxBufferWrite;
  34:Generated_Source\PSoC5/SPIS_2.c ****     volatile uint8 SPIS_2_rxBufferFull;
  35:Generated_Source\PSoC5/SPIS_2.c **** 
  36:Generated_Source\PSoC5/SPIS_2.c **** #endif /* SPIS_2_RX_SOFTWARE_BUF_ENABLED */
  37:Generated_Source\PSoC5/SPIS_2.c **** 
  38:Generated_Source\PSoC5/SPIS_2.c **** uint8 SPIS_2_initVar = 0u;
  39:Generated_Source\PSoC5/SPIS_2.c **** 
  40:Generated_Source\PSoC5/SPIS_2.c **** volatile uint8 SPIS_2_swStatusTx;
  41:Generated_Source\PSoC5/SPIS_2.c **** volatile uint8 SPIS_2_swStatusRx;
  42:Generated_Source\PSoC5/SPIS_2.c **** 
  43:Generated_Source\PSoC5/SPIS_2.c **** 
  44:Generated_Source\PSoC5/SPIS_2.c **** /*******************************************************************************
  45:Generated_Source\PSoC5/SPIS_2.c **** * Function Name: SPIS_2_Init
  46:Generated_Source\PSoC5/SPIS_2.c **** ********************************************************************************
  47:Generated_Source\PSoC5/SPIS_2.c **** *
  48:Generated_Source\PSoC5/SPIS_2.c **** * Summary:
  49:Generated_Source\PSoC5/SPIS_2.c **** *  Inits/Restores default SPIS configuration provided with customizer.
  50:Generated_Source\PSoC5/SPIS_2.c **** *
  51:Generated_Source\PSoC5/SPIS_2.c **** * Parameters:
  52:Generated_Source\PSoC5/SPIS_2.c **** *  None.
  53:Generated_Source\PSoC5/SPIS_2.c **** *
  54:Generated_Source\PSoC5/SPIS_2.c **** * Return:
  55:Generated_Source\PSoC5/SPIS_2.c **** *  None.
  56:Generated_Source\PSoC5/SPIS_2.c **** *
  57:Generated_Source\PSoC5/SPIS_2.c **** * Side Effects:
  58:Generated_Source\PSoC5/SPIS_2.c **** *  When this function is called it initializes all of the necessary parameters
  59:Generated_Source\PSoC5/SPIS_2.c **** *  for execution. i.e. setting the initial interrupt mask, configuring the
  60:Generated_Source\PSoC5/SPIS_2.c **** *  interrupt service routine, configuring the bit-counter parameters and
  61:Generated_Source\PSoC5/SPIS_2.c **** *  clearing the FIFO and Status Register.
  62:Generated_Source\PSoC5/SPIS_2.c **** *
  63:Generated_Source\PSoC5/SPIS_2.c **** * Reentrant:
  64:Generated_Source\PSoC5/SPIS_2.c **** *  No.
  65:Generated_Source\PSoC5/SPIS_2.c **** *
  66:Generated_Source\PSoC5/SPIS_2.c **** *******************************************************************************/
  67:Generated_Source\PSoC5/SPIS_2.c **** void SPIS_2_Init(void) 
  68:Generated_Source\PSoC5/SPIS_2.c **** {
  69:Generated_Source\PSoC5/SPIS_2.c ****     /*Initialize the Bit counter */
  70:Generated_Source\PSoC5/SPIS_2.c ****     SPIS_2_COUNTER_PERIOD_REG = SPIS_2_BITCTR_INIT;
  71:Generated_Source\PSoC5/SPIS_2.c **** 
  72:Generated_Source\PSoC5/SPIS_2.c ****     /* ISR initialization */
  73:Generated_Source\PSoC5/SPIS_2.c ****     #if(SPIS_2_INTERNAL_TX_INT_ENABLED)
  74:Generated_Source\PSoC5/SPIS_2.c **** 
  75:Generated_Source\PSoC5/SPIS_2.c ****         CyIntDisable(SPIS_2_TX_ISR_NUMBER);
  76:Generated_Source\PSoC5/SPIS_2.c **** 
  77:Generated_Source\PSoC5/SPIS_2.c ****         /* Set the ISR to point to the SPIS_2_isr Interrupt. */
  78:Generated_Source\PSoC5/SPIS_2.c ****         (void)CyIntSetVector(SPIS_2_TX_ISR_NUMBER, &SPIS_2_TX_ISR);
  79:Generated_Source\PSoC5/SPIS_2.c **** 
  80:Generated_Source\PSoC5/SPIS_2.c ****         /* Set the priority. */
  81:Generated_Source\PSoC5/SPIS_2.c ****         CyIntSetPriority(SPIS_2_TX_ISR_NUMBER, SPIS_2_TX_ISR_PRIORITY);
  82:Generated_Source\PSoC5/SPIS_2.c **** 
  83:Generated_Source\PSoC5/SPIS_2.c ****     #endif /* SPIS_2_INTERNAL_TX_INT_ENABLED */
  84:Generated_Source\PSoC5/SPIS_2.c **** 
  85:Generated_Source\PSoC5/SPIS_2.c ****     #if(SPIS_2_INTERNAL_RX_INT_ENABLED)
  86:Generated_Source\PSoC5/SPIS_2.c **** 
  87:Generated_Source\PSoC5/SPIS_2.c ****         CyIntDisable(SPIS_2_RX_ISR_NUMBER);
ARM GAS  C:\Users\jespe\AppData\Local\Temp\ccgNOQ6g.s 			page 3


  88:Generated_Source\PSoC5/SPIS_2.c **** 
  89:Generated_Source\PSoC5/SPIS_2.c ****         /* Set the ISR to point to the SPIS_2_isr Interrupt. */
  90:Generated_Source\PSoC5/SPIS_2.c ****         (void)CyIntSetVector(SPIS_2_RX_ISR_NUMBER, &SPIS_2_RX_ISR);
  91:Generated_Source\PSoC5/SPIS_2.c **** 
  92:Generated_Source\PSoC5/SPIS_2.c ****         /* Set the priority. */
  93:Generated_Source\PSoC5/SPIS_2.c ****         CyIntSetPriority(SPIS_2_RX_ISR_NUMBER, SPIS_2_RX_ISR_PRIORITY);
  94:Generated_Source\PSoC5/SPIS_2.c **** 
  95:Generated_Source\PSoC5/SPIS_2.c ****     #endif /* SPIS_2_INTERNAL_RX_INT_ENABLED */
  96:Generated_Source\PSoC5/SPIS_2.c **** 
  97:Generated_Source\PSoC5/SPIS_2.c ****     /* Clear any stray data from the RX and TX FIFO */
  98:Generated_Source\PSoC5/SPIS_2.c ****     SPIS_2_ClearFIFO();
  99:Generated_Source\PSoC5/SPIS_2.c **** 
 100:Generated_Source\PSoC5/SPIS_2.c ****     #if(SPIS_2_RX_SOFTWARE_BUF_ENABLED)
 101:Generated_Source\PSoC5/SPIS_2.c ****         SPIS_2_rxBufferFull = 0u;
 102:Generated_Source\PSoC5/SPIS_2.c ****         SPIS_2_rxBufferRead = 0u;
 103:Generated_Source\PSoC5/SPIS_2.c ****         SPIS_2_rxBufferWrite = 0u;
 104:Generated_Source\PSoC5/SPIS_2.c ****     #endif /* SPIS_2_RX_SOFTWARE_BUF_ENABLED */
 105:Generated_Source\PSoC5/SPIS_2.c **** 
 106:Generated_Source\PSoC5/SPIS_2.c ****     #if(SPIS_2_TX_SOFTWARE_BUF_ENABLED)
 107:Generated_Source\PSoC5/SPIS_2.c ****         SPIS_2_txBufferFull = 0u;
 108:Generated_Source\PSoC5/SPIS_2.c ****         SPIS_2_txBufferRead = 0u;
 109:Generated_Source\PSoC5/SPIS_2.c ****         SPIS_2_txBufferWrite = 0u;
 110:Generated_Source\PSoC5/SPIS_2.c ****     #endif /* SPIS_2_TX_SOFTWARE_BUF_ENABLED */
 111:Generated_Source\PSoC5/SPIS_2.c **** 
 112:Generated_Source\PSoC5/SPIS_2.c ****     (void) SPIS_2_ReadTxStatus(); /* Clear any pending status bits */
 113:Generated_Source\PSoC5/SPIS_2.c ****     (void) SPIS_2_ReadRxStatus(); /* Clear any pending status bits */
 114:Generated_Source\PSoC5/SPIS_2.c **** 
 115:Generated_Source\PSoC5/SPIS_2.c **** 
 116:Generated_Source\PSoC5/SPIS_2.c ****     /* Configure the Initial interrupt mask */
 117:Generated_Source\PSoC5/SPIS_2.c ****     #if (SPIS_2_TX_SOFTWARE_BUF_ENABLED)
 118:Generated_Source\PSoC5/SPIS_2.c ****         SPIS_2_TX_STATUS_MASK_REG  = (SPIS_2_TX_INIT_INTERRUPTS_MASK &
 119:Generated_Source\PSoC5/SPIS_2.c ****                                                 (uint8)~SPIS_2_STS_TX_FIFO_NOT_FULL);
 120:Generated_Source\PSoC5/SPIS_2.c ****     #else /* SPIS_2_TX_SOFTWARE_BUF_ENABLED */
 121:Generated_Source\PSoC5/SPIS_2.c ****         SPIS_2_TX_STATUS_MASK_REG  = SPIS_2_TX_INIT_INTERRUPTS_MASK;
 122:Generated_Source\PSoC5/SPIS_2.c ****     #endif /* SPIS_2_TX_SOFTWARE_BUF_ENABLED */
 123:Generated_Source\PSoC5/SPIS_2.c **** 
 124:Generated_Source\PSoC5/SPIS_2.c ****     SPIS_2_RX_STATUS_MASK_REG  = SPIS_2_RX_INIT_INTERRUPTS_MASK;
 125:Generated_Source\PSoC5/SPIS_2.c **** }
 126:Generated_Source\PSoC5/SPIS_2.c **** 
 127:Generated_Source\PSoC5/SPIS_2.c **** 
 128:Generated_Source\PSoC5/SPIS_2.c **** /*******************************************************************************
 129:Generated_Source\PSoC5/SPIS_2.c **** * Function Name: SPIS_2_Enable
 130:Generated_Source\PSoC5/SPIS_2.c **** ********************************************************************************
 131:Generated_Source\PSoC5/SPIS_2.c **** *
 132:Generated_Source\PSoC5/SPIS_2.c **** * Summary:
 133:Generated_Source\PSoC5/SPIS_2.c **** *  Enable SPIS component.
 134:Generated_Source\PSoC5/SPIS_2.c **** *
 135:Generated_Source\PSoC5/SPIS_2.c **** * Parameters:
 136:Generated_Source\PSoC5/SPIS_2.c **** *  None.
 137:Generated_Source\PSoC5/SPIS_2.c **** *
 138:Generated_Source\PSoC5/SPIS_2.c **** * Return:
 139:Generated_Source\PSoC5/SPIS_2.c **** *  None.
 140:Generated_Source\PSoC5/SPIS_2.c **** *
 141:Generated_Source\PSoC5/SPIS_2.c **** *******************************************************************************/
 142:Generated_Source\PSoC5/SPIS_2.c **** void SPIS_2_Enable(void) 
 143:Generated_Source\PSoC5/SPIS_2.c **** {
  28              		.loc 1 143 0
ARM GAS  C:\Users\jespe\AppData\Local\Temp\ccgNOQ6g.s 			page 4


  29              		.cfi_startproc
  30              		@ args = 0, pretend = 0, frame = 0
  31              		@ frame_needed = 0, uses_anonymous_args = 0
  32 0000 08B5     		push	{r3, lr}
  33              		.cfi_def_cfa_offset 8
  34              		.cfi_offset 3, -8
  35              		.cfi_offset 14, -4
 144:Generated_Source\PSoC5/SPIS_2.c ****     uint8 enableInterrupts;
 145:Generated_Source\PSoC5/SPIS_2.c ****     enableInterrupts = CyEnterCriticalSection();
  36              		.loc 1 145 0
  37 0002 FFF7FEFF 		bl	CyEnterCriticalSection
  38              	.LVL0:
 146:Generated_Source\PSoC5/SPIS_2.c **** 
 147:Generated_Source\PSoC5/SPIS_2.c ****     SPIS_2_COUNTER_CONTROL_REG |= SPIS_2_CNTR_ENABLE;
  39              		.loc 1 147 0
  40 0006 094A     		ldr	r2, .L3
  41 0008 1378     		ldrb	r3, [r2]	@ zero_extendqisi2
  42 000a 43F02003 		orr	r3, r3, #32
  43 000e 1370     		strb	r3, [r2]
 148:Generated_Source\PSoC5/SPIS_2.c ****     SPIS_2_TX_STATUS_ACTL_REG |= SPIS_2_INT_ENABLE;
  44              		.loc 1 148 0
  45 0010 013A     		subs	r2, r2, #1
  46 0012 1378     		ldrb	r3, [r2]	@ zero_extendqisi2
  47 0014 43F01003 		orr	r3, r3, #16
  48 0018 1370     		strb	r3, [r2]
 149:Generated_Source\PSoC5/SPIS_2.c ****     SPIS_2_RX_STATUS_ACTL_REG |= SPIS_2_INT_ENABLE;
  49              		.loc 1 149 0
  50 001a A2F58072 		sub	r2, r2, #256
  51 001e 1378     		ldrb	r3, [r2]	@ zero_extendqisi2
  52 0020 43F01003 		orr	r3, r3, #16
  53 0024 1370     		strb	r3, [r2]
 150:Generated_Source\PSoC5/SPIS_2.c **** 
 151:Generated_Source\PSoC5/SPIS_2.c ****     CyExitCriticalSection(enableInterrupts);
  54              		.loc 1 151 0
  55 0026 FFF7FEFF 		bl	CyExitCriticalSection
  56              	.LVL1:
  57 002a 08BD     		pop	{r3, pc}
  58              	.L4:
  59              		.align	2
  60              	.L3:
  61 002c 99650040 		.word	1073767833
  62              		.cfi_endproc
  63              	.LFE1:
  64              		.size	SPIS_2_Enable, .-SPIS_2_Enable
  65              		.section	.text.SPIS_2_Stop,"ax",%progbits
  66              		.align	2
  67              		.global	SPIS_2_Stop
  68              		.thumb
  69              		.thumb_func
  70              		.type	SPIS_2_Stop, %function
  71              	SPIS_2_Stop:
  72              	.LFB3:
 152:Generated_Source\PSoC5/SPIS_2.c **** 
 153:Generated_Source\PSoC5/SPIS_2.c ****     #if(SPIS_2_INTERNAL_TX_INT_ENABLED)
 154:Generated_Source\PSoC5/SPIS_2.c ****         CyIntEnable(SPIS_2_TX_ISR_NUMBER);
 155:Generated_Source\PSoC5/SPIS_2.c ****     #endif /* SPIS_2_INTERNAL_TX_INT_ENABLED */
 156:Generated_Source\PSoC5/SPIS_2.c **** 
ARM GAS  C:\Users\jespe\AppData\Local\Temp\ccgNOQ6g.s 			page 5


 157:Generated_Source\PSoC5/SPIS_2.c ****     #if(SPIS_2_INTERNAL_RX_INT_ENABLED)
 158:Generated_Source\PSoC5/SPIS_2.c ****         CyIntEnable(SPIS_2_RX_ISR_NUMBER);
 159:Generated_Source\PSoC5/SPIS_2.c ****     #endif /* SPIS_2_INTERNAL_RX_INT_ENABLED */
 160:Generated_Source\PSoC5/SPIS_2.c **** }
 161:Generated_Source\PSoC5/SPIS_2.c **** 
 162:Generated_Source\PSoC5/SPIS_2.c **** 
 163:Generated_Source\PSoC5/SPIS_2.c **** /*******************************************************************************
 164:Generated_Source\PSoC5/SPIS_2.c **** * Function Name: SPIS_2_Start
 165:Generated_Source\PSoC5/SPIS_2.c **** ********************************************************************************
 166:Generated_Source\PSoC5/SPIS_2.c **** *
 167:Generated_Source\PSoC5/SPIS_2.c **** * Summary:
 168:Generated_Source\PSoC5/SPIS_2.c **** *  Initialize and Enable the SPI Slave component.
 169:Generated_Source\PSoC5/SPIS_2.c **** *
 170:Generated_Source\PSoC5/SPIS_2.c **** * Parameters:
 171:Generated_Source\PSoC5/SPIS_2.c **** *  None.
 172:Generated_Source\PSoC5/SPIS_2.c **** *
 173:Generated_Source\PSoC5/SPIS_2.c **** * Return:
 174:Generated_Source\PSoC5/SPIS_2.c **** *  None.
 175:Generated_Source\PSoC5/SPIS_2.c **** *
 176:Generated_Source\PSoC5/SPIS_2.c **** * Global variables:
 177:Generated_Source\PSoC5/SPIS_2.c **** *  SPIS_2_initVar - used to check initial configuration, modified on
 178:Generated_Source\PSoC5/SPIS_2.c **** *  first function call.
 179:Generated_Source\PSoC5/SPIS_2.c **** *
 180:Generated_Source\PSoC5/SPIS_2.c **** * Theory:
 181:Generated_Source\PSoC5/SPIS_2.c **** *  Enable the clock input to enable operation.
 182:Generated_Source\PSoC5/SPIS_2.c **** *
 183:Generated_Source\PSoC5/SPIS_2.c **** * Reentrant:
 184:Generated_Source\PSoC5/SPIS_2.c **** *  No.
 185:Generated_Source\PSoC5/SPIS_2.c **** *
 186:Generated_Source\PSoC5/SPIS_2.c **** *******************************************************************************/
 187:Generated_Source\PSoC5/SPIS_2.c **** void SPIS_2_Start(void) 
 188:Generated_Source\PSoC5/SPIS_2.c **** {
 189:Generated_Source\PSoC5/SPIS_2.c ****     if(SPIS_2_initVar == 0u)
 190:Generated_Source\PSoC5/SPIS_2.c ****     {
 191:Generated_Source\PSoC5/SPIS_2.c ****         SPIS_2_Init();
 192:Generated_Source\PSoC5/SPIS_2.c ****         SPIS_2_initVar = 1u;
 193:Generated_Source\PSoC5/SPIS_2.c ****     }
 194:Generated_Source\PSoC5/SPIS_2.c **** 
 195:Generated_Source\PSoC5/SPIS_2.c ****     SPIS_2_Enable();
 196:Generated_Source\PSoC5/SPIS_2.c **** }
 197:Generated_Source\PSoC5/SPIS_2.c **** 
 198:Generated_Source\PSoC5/SPIS_2.c **** 
 199:Generated_Source\PSoC5/SPIS_2.c **** /*******************************************************************************
 200:Generated_Source\PSoC5/SPIS_2.c **** * Function Name: SPIS_2_Stop
 201:Generated_Source\PSoC5/SPIS_2.c **** ********************************************************************************
 202:Generated_Source\PSoC5/SPIS_2.c **** *
 203:Generated_Source\PSoC5/SPIS_2.c **** * Summary:
 204:Generated_Source\PSoC5/SPIS_2.c **** *  Disable the SPI Slave component.
 205:Generated_Source\PSoC5/SPIS_2.c **** *
 206:Generated_Source\PSoC5/SPIS_2.c **** * Parameters:
 207:Generated_Source\PSoC5/SPIS_2.c **** *  None.
 208:Generated_Source\PSoC5/SPIS_2.c **** *
 209:Generated_Source\PSoC5/SPIS_2.c **** * Return:
 210:Generated_Source\PSoC5/SPIS_2.c **** *  None.
 211:Generated_Source\PSoC5/SPIS_2.c **** *
 212:Generated_Source\PSoC5/SPIS_2.c **** * Theory:
 213:Generated_Source\PSoC5/SPIS_2.c **** *  Disable the internal interrupt if one is used.
ARM GAS  C:\Users\jespe\AppData\Local\Temp\ccgNOQ6g.s 			page 6


 214:Generated_Source\PSoC5/SPIS_2.c **** *
 215:Generated_Source\PSoC5/SPIS_2.c **** *******************************************************************************/
 216:Generated_Source\PSoC5/SPIS_2.c **** void SPIS_2_Stop(void) 
 217:Generated_Source\PSoC5/SPIS_2.c **** {
  73              		.loc 1 217 0
  74              		.cfi_startproc
  75              		@ args = 0, pretend = 0, frame = 0
  76              		@ frame_needed = 0, uses_anonymous_args = 0
  77 0000 08B5     		push	{r3, lr}
  78              		.cfi_def_cfa_offset 8
  79              		.cfi_offset 3, -8
  80              		.cfi_offset 14, -4
 218:Generated_Source\PSoC5/SPIS_2.c ****     uint8 enableInterrupts;
 219:Generated_Source\PSoC5/SPIS_2.c ****     enableInterrupts = CyEnterCriticalSection();
  81              		.loc 1 219 0
  82 0002 FFF7FEFF 		bl	CyEnterCriticalSection
  83              	.LVL2:
 220:Generated_Source\PSoC5/SPIS_2.c **** 
 221:Generated_Source\PSoC5/SPIS_2.c ****     SPIS_2_TX_STATUS_ACTL_REG &= (uint8)~SPIS_2_INT_ENABLE;
  84              		.loc 1 221 0
  85 0006 074A     		ldr	r2, .L7
  86 0008 1378     		ldrb	r3, [r2]	@ zero_extendqisi2
  87 000a 03F0EF03 		and	r3, r3, #239
  88 000e 1370     		strb	r3, [r2]
 222:Generated_Source\PSoC5/SPIS_2.c ****     SPIS_2_RX_STATUS_ACTL_REG &= (uint8)~SPIS_2_INT_ENABLE;
  89              		.loc 1 222 0
  90 0010 A2F58072 		sub	r2, r2, #256
  91 0014 1378     		ldrb	r3, [r2]	@ zero_extendqisi2
  92 0016 03F0EF03 		and	r3, r3, #239
  93 001a 1370     		strb	r3, [r2]
 223:Generated_Source\PSoC5/SPIS_2.c **** 
 224:Generated_Source\PSoC5/SPIS_2.c ****     CyExitCriticalSection(enableInterrupts);
  94              		.loc 1 224 0
  95 001c FFF7FEFF 		bl	CyExitCriticalSection
  96              	.LVL3:
  97 0020 08BD     		pop	{r3, pc}
  98              	.L8:
  99 0022 00BF     		.align	2
 100              	.L7:
 101 0024 98650040 		.word	1073767832
 102              		.cfi_endproc
 103              	.LFE3:
 104              		.size	SPIS_2_Stop, .-SPIS_2_Stop
 105              		.section	.text.SPIS_2_EnableTxInt,"ax",%progbits
 106              		.align	2
 107              		.global	SPIS_2_EnableTxInt
 108              		.thumb
 109              		.thumb_func
 110              		.type	SPIS_2_EnableTxInt, %function
 111              	SPIS_2_EnableTxInt:
 112              	.LFB4:
 225:Generated_Source\PSoC5/SPIS_2.c **** 
 226:Generated_Source\PSoC5/SPIS_2.c ****     #if(SPIS_2_INTERNAL_TX_INT_ENABLED)
 227:Generated_Source\PSoC5/SPIS_2.c ****         CyIntDisable(SPIS_2_TX_ISR_NUMBER);
 228:Generated_Source\PSoC5/SPIS_2.c ****     #endif /* SPIS_2_INTERNAL_TX_INT_ENABLED */
 229:Generated_Source\PSoC5/SPIS_2.c **** 
 230:Generated_Source\PSoC5/SPIS_2.c ****     #if(SPIS_2_INTERNAL_RX_INT_ENABLED)
ARM GAS  C:\Users\jespe\AppData\Local\Temp\ccgNOQ6g.s 			page 7


 231:Generated_Source\PSoC5/SPIS_2.c ****         CyIntDisable(SPIS_2_RX_ISR_NUMBER);
 232:Generated_Source\PSoC5/SPIS_2.c ****     #endif /* SPIS_2_INTERNAL_RX_INT_ENABLED */
 233:Generated_Source\PSoC5/SPIS_2.c **** }
 234:Generated_Source\PSoC5/SPIS_2.c **** 
 235:Generated_Source\PSoC5/SPIS_2.c **** 
 236:Generated_Source\PSoC5/SPIS_2.c **** /*******************************************************************************
 237:Generated_Source\PSoC5/SPIS_2.c **** * Function Name: SPIS_2_EnableTxInt
 238:Generated_Source\PSoC5/SPIS_2.c **** ********************************************************************************
 239:Generated_Source\PSoC5/SPIS_2.c **** *
 240:Generated_Source\PSoC5/SPIS_2.c **** * Summary:
 241:Generated_Source\PSoC5/SPIS_2.c **** *  Enable internal Tx interrupt generation.
 242:Generated_Source\PSoC5/SPIS_2.c **** *
 243:Generated_Source\PSoC5/SPIS_2.c **** * Parameters:
 244:Generated_Source\PSoC5/SPIS_2.c **** *  None.
 245:Generated_Source\PSoC5/SPIS_2.c **** *
 246:Generated_Source\PSoC5/SPIS_2.c **** * Return:
 247:Generated_Source\PSoC5/SPIS_2.c **** *  None.
 248:Generated_Source\PSoC5/SPIS_2.c **** *
 249:Generated_Source\PSoC5/SPIS_2.c **** * Theory:
 250:Generated_Source\PSoC5/SPIS_2.c **** *  Enable the internal Tx interrupt output -or- the interrupt component itself.
 251:Generated_Source\PSoC5/SPIS_2.c **** *
 252:Generated_Source\PSoC5/SPIS_2.c **** *******************************************************************************/
 253:Generated_Source\PSoC5/SPIS_2.c **** void SPIS_2_EnableTxInt(void) 
 254:Generated_Source\PSoC5/SPIS_2.c **** {
 113              		.loc 1 254 0
 114              		.cfi_startproc
 115              		@ args = 0, pretend = 0, frame = 0
 116              		@ frame_needed = 0, uses_anonymous_args = 0
 117              		@ link register save eliminated.
 118 0000 7047     		bx	lr
 119              		.cfi_endproc
 120              	.LFE4:
 121              		.size	SPIS_2_EnableTxInt, .-SPIS_2_EnableTxInt
 122 0002 00BF     		.section	.text.SPIS_2_EnableRxInt,"ax",%progbits
 123              		.align	2
 124              		.global	SPIS_2_EnableRxInt
 125              		.thumb
 126              		.thumb_func
 127              		.type	SPIS_2_EnableRxInt, %function
 128              	SPIS_2_EnableRxInt:
 129              	.LFB5:
 255:Generated_Source\PSoC5/SPIS_2.c ****     #if(SPIS_2_INTERNAL_TX_INT_ENABLED)
 256:Generated_Source\PSoC5/SPIS_2.c ****         CyIntEnable(SPIS_2_TX_ISR_NUMBER);
 257:Generated_Source\PSoC5/SPIS_2.c ****     #endif /* SPIS_2_INTERNAL_TX_INT_ENABLED */
 258:Generated_Source\PSoC5/SPIS_2.c **** }
 259:Generated_Source\PSoC5/SPIS_2.c **** 
 260:Generated_Source\PSoC5/SPIS_2.c **** 
 261:Generated_Source\PSoC5/SPIS_2.c **** /*******************************************************************************
 262:Generated_Source\PSoC5/SPIS_2.c **** * Function Name: SPIS_2_EnableRxInt
 263:Generated_Source\PSoC5/SPIS_2.c **** ********************************************************************************
 264:Generated_Source\PSoC5/SPIS_2.c **** *
 265:Generated_Source\PSoC5/SPIS_2.c **** * Summary:
 266:Generated_Source\PSoC5/SPIS_2.c **** *  Enable internal Rx interrupt generation.
 267:Generated_Source\PSoC5/SPIS_2.c **** *
 268:Generated_Source\PSoC5/SPIS_2.c **** * Parameters:
 269:Generated_Source\PSoC5/SPIS_2.c **** *  None.
 270:Generated_Source\PSoC5/SPIS_2.c **** *
ARM GAS  C:\Users\jespe\AppData\Local\Temp\ccgNOQ6g.s 			page 8


 271:Generated_Source\PSoC5/SPIS_2.c **** * Return:
 272:Generated_Source\PSoC5/SPIS_2.c **** *  None.
 273:Generated_Source\PSoC5/SPIS_2.c **** *
 274:Generated_Source\PSoC5/SPIS_2.c **** * Theory:
 275:Generated_Source\PSoC5/SPIS_2.c **** *  Enable the internal Rx interrupt output -or- the interrupt component itself.
 276:Generated_Source\PSoC5/SPIS_2.c **** *
 277:Generated_Source\PSoC5/SPIS_2.c **** *******************************************************************************/
 278:Generated_Source\PSoC5/SPIS_2.c **** void SPIS_2_EnableRxInt(void) 
 279:Generated_Source\PSoC5/SPIS_2.c **** {
 130              		.loc 1 279 0
 131              		.cfi_startproc
 132              		@ args = 0, pretend = 0, frame = 0
 133              		@ frame_needed = 0, uses_anonymous_args = 0
 134              		@ link register save eliminated.
 135 0000 7047     		bx	lr
 136              		.cfi_endproc
 137              	.LFE5:
 138              		.size	SPIS_2_EnableRxInt, .-SPIS_2_EnableRxInt
 139 0002 00BF     		.section	.text.SPIS_2_DisableTxInt,"ax",%progbits
 140              		.align	2
 141              		.global	SPIS_2_DisableTxInt
 142              		.thumb
 143              		.thumb_func
 144              		.type	SPIS_2_DisableTxInt, %function
 145              	SPIS_2_DisableTxInt:
 146              	.LFB6:
 280:Generated_Source\PSoC5/SPIS_2.c ****     #if(SPIS_2_INTERNAL_RX_INT_ENABLED)
 281:Generated_Source\PSoC5/SPIS_2.c ****         CyIntEnable(SPIS_2_RX_ISR_NUMBER);
 282:Generated_Source\PSoC5/SPIS_2.c ****     #endif /* SPIS_2_INTERNAL_RX_INT_ENABLED */
 283:Generated_Source\PSoC5/SPIS_2.c **** }
 284:Generated_Source\PSoC5/SPIS_2.c **** 
 285:Generated_Source\PSoC5/SPIS_2.c **** 
 286:Generated_Source\PSoC5/SPIS_2.c **** /*******************************************************************************
 287:Generated_Source\PSoC5/SPIS_2.c **** * Function Name: SPIS_2_DisableTxInt
 288:Generated_Source\PSoC5/SPIS_2.c **** ********************************************************************************
 289:Generated_Source\PSoC5/SPIS_2.c **** *
 290:Generated_Source\PSoC5/SPIS_2.c **** * Summary:
 291:Generated_Source\PSoC5/SPIS_2.c **** *  Disable internal Tx interrupt generation.
 292:Generated_Source\PSoC5/SPIS_2.c **** *
 293:Generated_Source\PSoC5/SPIS_2.c **** * Parameters:
 294:Generated_Source\PSoC5/SPIS_2.c **** *  None.
 295:Generated_Source\PSoC5/SPIS_2.c **** *
 296:Generated_Source\PSoC5/SPIS_2.c **** * Return:
 297:Generated_Source\PSoC5/SPIS_2.c **** *  None.
 298:Generated_Source\PSoC5/SPIS_2.c **** *
 299:Generated_Source\PSoC5/SPIS_2.c **** * Theory:
 300:Generated_Source\PSoC5/SPIS_2.c **** *  Disable the internal Tx interrupt output -or- the interrupt component itself.
 301:Generated_Source\PSoC5/SPIS_2.c **** *
 302:Generated_Source\PSoC5/SPIS_2.c **** *******************************************************************************/
 303:Generated_Source\PSoC5/SPIS_2.c **** void SPIS_2_DisableTxInt(void) 
 304:Generated_Source\PSoC5/SPIS_2.c **** {
 147              		.loc 1 304 0
 148              		.cfi_startproc
 149              		@ args = 0, pretend = 0, frame = 0
 150              		@ frame_needed = 0, uses_anonymous_args = 0
 151              		@ link register save eliminated.
 152 0000 7047     		bx	lr
ARM GAS  C:\Users\jespe\AppData\Local\Temp\ccgNOQ6g.s 			page 9


 153              		.cfi_endproc
 154              	.LFE6:
 155              		.size	SPIS_2_DisableTxInt, .-SPIS_2_DisableTxInt
 156 0002 00BF     		.section	.text.SPIS_2_DisableRxInt,"ax",%progbits
 157              		.align	2
 158              		.global	SPIS_2_DisableRxInt
 159              		.thumb
 160              		.thumb_func
 161              		.type	SPIS_2_DisableRxInt, %function
 162              	SPIS_2_DisableRxInt:
 163              	.LFB7:
 305:Generated_Source\PSoC5/SPIS_2.c ****     #if(SPIS_2_INTERNAL_TX_INT_ENABLED)
 306:Generated_Source\PSoC5/SPIS_2.c ****         CyIntDisable(SPIS_2_TX_ISR_NUMBER);
 307:Generated_Source\PSoC5/SPIS_2.c ****     #endif /* SPIS_2_INTERNAL_TX_INT_ENABLED */
 308:Generated_Source\PSoC5/SPIS_2.c **** }
 309:Generated_Source\PSoC5/SPIS_2.c **** 
 310:Generated_Source\PSoC5/SPIS_2.c **** 
 311:Generated_Source\PSoC5/SPIS_2.c **** /*******************************************************************************
 312:Generated_Source\PSoC5/SPIS_2.c **** * Function Name: SPIS_2_DisableRxInt
 313:Generated_Source\PSoC5/SPIS_2.c **** ********************************************************************************
 314:Generated_Source\PSoC5/SPIS_2.c **** *
 315:Generated_Source\PSoC5/SPIS_2.c **** * Summary:
 316:Generated_Source\PSoC5/SPIS_2.c **** *  Disable internal Rx interrupt generation.
 317:Generated_Source\PSoC5/SPIS_2.c **** *
 318:Generated_Source\PSoC5/SPIS_2.c **** * Parameters:
 319:Generated_Source\PSoC5/SPIS_2.c **** *  None.
 320:Generated_Source\PSoC5/SPIS_2.c **** *
 321:Generated_Source\PSoC5/SPIS_2.c **** * Return:
 322:Generated_Source\PSoC5/SPIS_2.c **** *  None.
 323:Generated_Source\PSoC5/SPIS_2.c **** *
 324:Generated_Source\PSoC5/SPIS_2.c **** * Theory:
 325:Generated_Source\PSoC5/SPIS_2.c **** *  Disable the internal Rx interrupt output -or- the interrupt component itself.
 326:Generated_Source\PSoC5/SPIS_2.c **** *
 327:Generated_Source\PSoC5/SPIS_2.c **** *******************************************************************************/
 328:Generated_Source\PSoC5/SPIS_2.c **** void SPIS_2_DisableRxInt(void) 
 329:Generated_Source\PSoC5/SPIS_2.c **** {
 164              		.loc 1 329 0
 165              		.cfi_startproc
 166              		@ args = 0, pretend = 0, frame = 0
 167              		@ frame_needed = 0, uses_anonymous_args = 0
 168              		@ link register save eliminated.
 169 0000 7047     		bx	lr
 170              		.cfi_endproc
 171              	.LFE7:
 172              		.size	SPIS_2_DisableRxInt, .-SPIS_2_DisableRxInt
 173 0002 00BF     		.section	.text.SPIS_2_SetTxInterruptMode,"ax",%progbits
 174              		.align	2
 175              		.global	SPIS_2_SetTxInterruptMode
 176              		.thumb
 177              		.thumb_func
 178              		.type	SPIS_2_SetTxInterruptMode, %function
 179              	SPIS_2_SetTxInterruptMode:
 180              	.LFB8:
 330:Generated_Source\PSoC5/SPIS_2.c ****     #if(SPIS_2_INTERNAL_RX_INT_ENABLED)
 331:Generated_Source\PSoC5/SPIS_2.c ****         CyIntDisable(SPIS_2_RX_ISR_NUMBER);
 332:Generated_Source\PSoC5/SPIS_2.c ****     #endif /* SPIS_2_INTERNAL_RX_INT_ENABLED */
 333:Generated_Source\PSoC5/SPIS_2.c **** }
ARM GAS  C:\Users\jespe\AppData\Local\Temp\ccgNOQ6g.s 			page 10


 334:Generated_Source\PSoC5/SPIS_2.c **** 
 335:Generated_Source\PSoC5/SPIS_2.c **** 
 336:Generated_Source\PSoC5/SPIS_2.c **** /*******************************************************************************
 337:Generated_Source\PSoC5/SPIS_2.c **** * Function Name: SPIS_2_SetTxInterruptMode
 338:Generated_Source\PSoC5/SPIS_2.c **** ********************************************************************************
 339:Generated_Source\PSoC5/SPIS_2.c **** *
 340:Generated_Source\PSoC5/SPIS_2.c **** * Summary:
 341:Generated_Source\PSoC5/SPIS_2.c **** *  Configure which status bits trigger an interrupt event.
 342:Generated_Source\PSoC5/SPIS_2.c **** *
 343:Generated_Source\PSoC5/SPIS_2.c **** * Parameters:
 344:Generated_Source\PSoC5/SPIS_2.c **** *  intSrc: An or'd combination of the desired status bit masks (defined in the
 345:Generated_Source\PSoC5/SPIS_2.c **** *  header file).
 346:Generated_Source\PSoC5/SPIS_2.c **** *
 347:Generated_Source\PSoC5/SPIS_2.c **** * Return:
 348:Generated_Source\PSoC5/SPIS_2.c **** *  None.
 349:Generated_Source\PSoC5/SPIS_2.c **** *
 350:Generated_Source\PSoC5/SPIS_2.c **** * Theory:
 351:Generated_Source\PSoC5/SPIS_2.c **** *  Enables the output of specific status bits to the interrupt controller.
 352:Generated_Source\PSoC5/SPIS_2.c **** *
 353:Generated_Source\PSoC5/SPIS_2.c **** *******************************************************************************/
 354:Generated_Source\PSoC5/SPIS_2.c **** void SPIS_2_SetTxInterruptMode(uint8 intSrc) 
 355:Generated_Source\PSoC5/SPIS_2.c **** {
 181              		.loc 1 355 0
 182              		.cfi_startproc
 183              		@ args = 0, pretend = 0, frame = 0
 184              		@ frame_needed = 0, uses_anonymous_args = 0
 185              		@ link register save eliminated.
 186              	.LVL4:
 356:Generated_Source\PSoC5/SPIS_2.c ****     SPIS_2_TX_STATUS_MASK_REG  = intSrc;
 187              		.loc 1 356 0
 188 0000 014B     		ldr	r3, .L14
 189 0002 1870     		strb	r0, [r3]
 190 0004 7047     		bx	lr
 191              	.L15:
 192 0006 00BF     		.align	2
 193              	.L14:
 194 0008 88650040 		.word	1073767816
 195              		.cfi_endproc
 196              	.LFE8:
 197              		.size	SPIS_2_SetTxInterruptMode, .-SPIS_2_SetTxInterruptMode
 198              		.section	.text.SPIS_2_SetRxInterruptMode,"ax",%progbits
 199              		.align	2
 200              		.global	SPIS_2_SetRxInterruptMode
 201              		.thumb
 202              		.thumb_func
 203              		.type	SPIS_2_SetRxInterruptMode, %function
 204              	SPIS_2_SetRxInterruptMode:
 205              	.LFB9:
 357:Generated_Source\PSoC5/SPIS_2.c **** }
 358:Generated_Source\PSoC5/SPIS_2.c **** 
 359:Generated_Source\PSoC5/SPIS_2.c **** 
 360:Generated_Source\PSoC5/SPIS_2.c **** /*******************************************************************************
 361:Generated_Source\PSoC5/SPIS_2.c **** * Function Name: SPIS_2_SetRxInterruptMode
 362:Generated_Source\PSoC5/SPIS_2.c **** ********************************************************************************
 363:Generated_Source\PSoC5/SPIS_2.c **** *
 364:Generated_Source\PSoC5/SPIS_2.c **** * Summary:
 365:Generated_Source\PSoC5/SPIS_2.c **** *  Configure which status bits trigger an interrupt event.
ARM GAS  C:\Users\jespe\AppData\Local\Temp\ccgNOQ6g.s 			page 11


 366:Generated_Source\PSoC5/SPIS_2.c **** *
 367:Generated_Source\PSoC5/SPIS_2.c **** * Parameters:
 368:Generated_Source\PSoC5/SPIS_2.c **** *  intSrc: An or'd combination of the desired status bit masks (defined in the
 369:Generated_Source\PSoC5/SPIS_2.c **** *  header file).
 370:Generated_Source\PSoC5/SPIS_2.c **** *
 371:Generated_Source\PSoC5/SPIS_2.c **** * Return:
 372:Generated_Source\PSoC5/SPIS_2.c **** *  None.
 373:Generated_Source\PSoC5/SPIS_2.c **** *
 374:Generated_Source\PSoC5/SPIS_2.c **** * Theory:
 375:Generated_Source\PSoC5/SPIS_2.c **** *  Enables the output of specific status bits to the interrupt controller.
 376:Generated_Source\PSoC5/SPIS_2.c **** *
 377:Generated_Source\PSoC5/SPIS_2.c **** *******************************************************************************/
 378:Generated_Source\PSoC5/SPIS_2.c **** void SPIS_2_SetRxInterruptMode(uint8 intSrc) 
 379:Generated_Source\PSoC5/SPIS_2.c **** {
 206              		.loc 1 379 0
 207              		.cfi_startproc
 208              		@ args = 0, pretend = 0, frame = 0
 209              		@ frame_needed = 0, uses_anonymous_args = 0
 210              		@ link register save eliminated.
 211              	.LVL5:
 380:Generated_Source\PSoC5/SPIS_2.c ****     SPIS_2_RX_STATUS_MASK_REG  = intSrc;
 212              		.loc 1 380 0
 213 0000 014B     		ldr	r3, .L17
 214 0002 1870     		strb	r0, [r3]
 215 0004 7047     		bx	lr
 216              	.L18:
 217 0006 00BF     		.align	2
 218              	.L17:
 219 0008 88640040 		.word	1073767560
 220              		.cfi_endproc
 221              	.LFE9:
 222              		.size	SPIS_2_SetRxInterruptMode, .-SPIS_2_SetRxInterruptMode
 223              		.section	.text.SPIS_2_ReadTxStatus,"ax",%progbits
 224              		.align	2
 225              		.global	SPIS_2_ReadTxStatus
 226              		.thumb
 227              		.thumb_func
 228              		.type	SPIS_2_ReadTxStatus, %function
 229              	SPIS_2_ReadTxStatus:
 230              	.LFB10:
 381:Generated_Source\PSoC5/SPIS_2.c **** }
 382:Generated_Source\PSoC5/SPIS_2.c **** 
 383:Generated_Source\PSoC5/SPIS_2.c **** 
 384:Generated_Source\PSoC5/SPIS_2.c **** /*******************************************************************************
 385:Generated_Source\PSoC5/SPIS_2.c **** * Function Name: SPIS_2_ReadTxStatus
 386:Generated_Source\PSoC5/SPIS_2.c **** ********************************************************************************
 387:Generated_Source\PSoC5/SPIS_2.c **** *
 388:Generated_Source\PSoC5/SPIS_2.c **** * Summary:
 389:Generated_Source\PSoC5/SPIS_2.c **** *  Read the Tx status register for the component.
 390:Generated_Source\PSoC5/SPIS_2.c **** *
 391:Generated_Source\PSoC5/SPIS_2.c **** * Parameters:
 392:Generated_Source\PSoC5/SPIS_2.c **** *  None.
 393:Generated_Source\PSoC5/SPIS_2.c **** *
 394:Generated_Source\PSoC5/SPIS_2.c **** * Return:
 395:Generated_Source\PSoC5/SPIS_2.c **** *  Contents of the Tx status register.
 396:Generated_Source\PSoC5/SPIS_2.c **** *
 397:Generated_Source\PSoC5/SPIS_2.c **** * Global variables:
ARM GAS  C:\Users\jespe\AppData\Local\Temp\ccgNOQ6g.s 			page 12


 398:Generated_Source\PSoC5/SPIS_2.c **** *  SPIS_2_swStatusTx - used to store in software status register,
 399:Generated_Source\PSoC5/SPIS_2.c **** *  modified every function call - resets to zero.
 400:Generated_Source\PSoC5/SPIS_2.c **** *
 401:Generated_Source\PSoC5/SPIS_2.c **** * Theory:
 402:Generated_Source\PSoC5/SPIS_2.c **** *  Allows the user and the API to read the Tx status register for error
 403:Generated_Source\PSoC5/SPIS_2.c **** *  detection and flow control.
 404:Generated_Source\PSoC5/SPIS_2.c **** *
 405:Generated_Source\PSoC5/SPIS_2.c **** * Side Effects:
 406:Generated_Source\PSoC5/SPIS_2.c **** *  Clear Tx status register of the component.
 407:Generated_Source\PSoC5/SPIS_2.c **** *
 408:Generated_Source\PSoC5/SPIS_2.c **** * Reentrant:
 409:Generated_Source\PSoC5/SPIS_2.c **** *  No.
 410:Generated_Source\PSoC5/SPIS_2.c **** *
 411:Generated_Source\PSoC5/SPIS_2.c **** *******************************************************************************/
 412:Generated_Source\PSoC5/SPIS_2.c **** uint8 SPIS_2_ReadTxStatus(void) 
 413:Generated_Source\PSoC5/SPIS_2.c **** {
 231              		.loc 1 413 0
 232              		.cfi_startproc
 233              		@ args = 0, pretend = 0, frame = 0
 234              		@ frame_needed = 0, uses_anonymous_args = 0
 235              		@ link register save eliminated.
 414:Generated_Source\PSoC5/SPIS_2.c ****     uint8 tmpStatus;
 415:Generated_Source\PSoC5/SPIS_2.c **** 
 416:Generated_Source\PSoC5/SPIS_2.c ****     #if (SPIS_2_TX_SOFTWARE_BUF_ENABLED)
 417:Generated_Source\PSoC5/SPIS_2.c **** 
 418:Generated_Source\PSoC5/SPIS_2.c ****         SPIS_2_DisableTxInt();
 419:Generated_Source\PSoC5/SPIS_2.c **** 
 420:Generated_Source\PSoC5/SPIS_2.c ****         tmpStatus = SPIS_2_GET_STATUS_TX(SPIS_2_swStatusTx);
 421:Generated_Source\PSoC5/SPIS_2.c **** 
 422:Generated_Source\PSoC5/SPIS_2.c ****         SPIS_2_swStatusTx = 0u;
 423:Generated_Source\PSoC5/SPIS_2.c **** 
 424:Generated_Source\PSoC5/SPIS_2.c ****         /* Enable Interrupts */
 425:Generated_Source\PSoC5/SPIS_2.c ****         SPIS_2_EnableTxInt();
 426:Generated_Source\PSoC5/SPIS_2.c **** 
 427:Generated_Source\PSoC5/SPIS_2.c ****     #else /* !SPIS_2_TX_SOFTWARE_BUF_ENABLED */
 428:Generated_Source\PSoC5/SPIS_2.c **** 
 429:Generated_Source\PSoC5/SPIS_2.c ****         tmpStatus = SPIS_2_TX_STATUS_REG;
 236              		.loc 1 429 0
 237 0000 014B     		ldr	r3, .L20
 238 0002 1878     		ldrb	r0, [r3]	@ zero_extendqisi2
 239              	.LVL6:
 430:Generated_Source\PSoC5/SPIS_2.c **** 
 431:Generated_Source\PSoC5/SPIS_2.c ****     #endif /* SPIS_2_TX_SOFTWARE_BUF_ENABLED */
 432:Generated_Source\PSoC5/SPIS_2.c **** 
 433:Generated_Source\PSoC5/SPIS_2.c ****     return(tmpStatus);
 434:Generated_Source\PSoC5/SPIS_2.c **** }
 240              		.loc 1 434 0
 241 0004 7047     		bx	lr
 242              	.L21:
 243 0006 00BF     		.align	2
 244              	.L20:
 245 0008 68650040 		.word	1073767784
 246              		.cfi_endproc
 247              	.LFE10:
 248              		.size	SPIS_2_ReadTxStatus, .-SPIS_2_ReadTxStatus
 249              		.section	.text.SPIS_2_ReadRxStatus,"ax",%progbits
 250              		.align	2
ARM GAS  C:\Users\jespe\AppData\Local\Temp\ccgNOQ6g.s 			page 13


 251              		.global	SPIS_2_ReadRxStatus
 252              		.thumb
 253              		.thumb_func
 254              		.type	SPIS_2_ReadRxStatus, %function
 255              	SPIS_2_ReadRxStatus:
 256              	.LFB11:
 435:Generated_Source\PSoC5/SPIS_2.c **** 
 436:Generated_Source\PSoC5/SPIS_2.c **** 
 437:Generated_Source\PSoC5/SPIS_2.c **** /*******************************************************************************
 438:Generated_Source\PSoC5/SPIS_2.c **** * Function Name: SPIS_2_ReadRxStatus
 439:Generated_Source\PSoC5/SPIS_2.c **** ********************************************************************************
 440:Generated_Source\PSoC5/SPIS_2.c **** *
 441:Generated_Source\PSoC5/SPIS_2.c **** * Summary:
 442:Generated_Source\PSoC5/SPIS_2.c **** *  Read the Rx status register for the component.
 443:Generated_Source\PSoC5/SPIS_2.c **** *
 444:Generated_Source\PSoC5/SPIS_2.c **** * Parameters:
 445:Generated_Source\PSoC5/SPIS_2.c **** *  None.
 446:Generated_Source\PSoC5/SPIS_2.c **** *
 447:Generated_Source\PSoC5/SPIS_2.c **** * Return:
 448:Generated_Source\PSoC5/SPIS_2.c **** *  Contents of the Rx status register.
 449:Generated_Source\PSoC5/SPIS_2.c **** *
 450:Generated_Source\PSoC5/SPIS_2.c **** * Global variables:
 451:Generated_Source\PSoC5/SPIS_2.c **** *  SPIS_2_swStatusRx - used to store in software Rx status register,
 452:Generated_Source\PSoC5/SPIS_2.c **** *  modified every function call - resets to zero.
 453:Generated_Source\PSoC5/SPIS_2.c **** *
 454:Generated_Source\PSoC5/SPIS_2.c **** * Theory:
 455:Generated_Source\PSoC5/SPIS_2.c **** *  Allows the user and the API to read the Rx status register for error
 456:Generated_Source\PSoC5/SPIS_2.c **** *  detection and flow control.
 457:Generated_Source\PSoC5/SPIS_2.c **** *
 458:Generated_Source\PSoC5/SPIS_2.c **** * Side Effects:
 459:Generated_Source\PSoC5/SPIS_2.c **** *  Clear Rx status register of the component.
 460:Generated_Source\PSoC5/SPIS_2.c **** *
 461:Generated_Source\PSoC5/SPIS_2.c **** * Reentrant:
 462:Generated_Source\PSoC5/SPIS_2.c **** *  No.
 463:Generated_Source\PSoC5/SPIS_2.c **** *
 464:Generated_Source\PSoC5/SPIS_2.c **** *******************************************************************************/
 465:Generated_Source\PSoC5/SPIS_2.c **** uint8 SPIS_2_ReadRxStatus(void) 
 466:Generated_Source\PSoC5/SPIS_2.c **** {
 257              		.loc 1 466 0
 258              		.cfi_startproc
 259              		@ args = 0, pretend = 0, frame = 0
 260              		@ frame_needed = 0, uses_anonymous_args = 0
 261              		@ link register save eliminated.
 467:Generated_Source\PSoC5/SPIS_2.c ****     uint8 tmpStatus;
 468:Generated_Source\PSoC5/SPIS_2.c **** 
 469:Generated_Source\PSoC5/SPIS_2.c ****     #if (SPIS_2_RX_SOFTWARE_BUF_ENABLED)
 470:Generated_Source\PSoC5/SPIS_2.c **** 
 471:Generated_Source\PSoC5/SPIS_2.c ****         SPIS_2_DisableRxInt();
 472:Generated_Source\PSoC5/SPIS_2.c **** 
 473:Generated_Source\PSoC5/SPIS_2.c ****         tmpStatus = SPIS_2_GET_STATUS_RX(SPIS_2_swStatusRx);
 474:Generated_Source\PSoC5/SPIS_2.c **** 
 475:Generated_Source\PSoC5/SPIS_2.c ****         SPIS_2_swStatusRx = 0u;
 476:Generated_Source\PSoC5/SPIS_2.c **** 
 477:Generated_Source\PSoC5/SPIS_2.c ****         /* Enable Interrupts */
 478:Generated_Source\PSoC5/SPIS_2.c ****         SPIS_2_EnableRxInt();
 479:Generated_Source\PSoC5/SPIS_2.c **** 
 480:Generated_Source\PSoC5/SPIS_2.c ****     #else /* !SPIS_2_RX_SOFTWARE_BUF_ENABLED */
ARM GAS  C:\Users\jespe\AppData\Local\Temp\ccgNOQ6g.s 			page 14


 481:Generated_Source\PSoC5/SPIS_2.c **** 
 482:Generated_Source\PSoC5/SPIS_2.c ****         tmpStatus = SPIS_2_RX_STATUS_REG;
 262              		.loc 1 482 0
 263 0000 014B     		ldr	r3, .L23
 264 0002 1878     		ldrb	r0, [r3]	@ zero_extendqisi2
 265              	.LVL7:
 483:Generated_Source\PSoC5/SPIS_2.c **** 
 484:Generated_Source\PSoC5/SPIS_2.c ****     #endif /* SPIS_2_RX_SOFTWARE_BUF_ENABLED */
 485:Generated_Source\PSoC5/SPIS_2.c **** 
 486:Generated_Source\PSoC5/SPIS_2.c ****     return(tmpStatus);
 487:Generated_Source\PSoC5/SPIS_2.c **** }
 266              		.loc 1 487 0
 267 0004 7047     		bx	lr
 268              	.L24:
 269 0006 00BF     		.align	2
 270              	.L23:
 271 0008 68640040 		.word	1073767528
 272              		.cfi_endproc
 273              	.LFE11:
 274              		.size	SPIS_2_ReadRxStatus, .-SPIS_2_ReadRxStatus
 275              		.section	.text.SPIS_2_WriteTxData,"ax",%progbits
 276              		.align	2
 277              		.global	SPIS_2_WriteTxData
 278              		.thumb
 279              		.thumb_func
 280              		.type	SPIS_2_WriteTxData, %function
 281              	SPIS_2_WriteTxData:
 282              	.LFB12:
 488:Generated_Source\PSoC5/SPIS_2.c **** 
 489:Generated_Source\PSoC5/SPIS_2.c **** 
 490:Generated_Source\PSoC5/SPIS_2.c **** /*******************************************************************************
 491:Generated_Source\PSoC5/SPIS_2.c **** * Function Name: SPIS_2_WriteTxData
 492:Generated_Source\PSoC5/SPIS_2.c **** ********************************************************************************
 493:Generated_Source\PSoC5/SPIS_2.c **** *
 494:Generated_Source\PSoC5/SPIS_2.c **** * Summary:
 495:Generated_Source\PSoC5/SPIS_2.c **** *  Write a byte of data to be sent across the SPI.
 496:Generated_Source\PSoC5/SPIS_2.c **** *
 497:Generated_Source\PSoC5/SPIS_2.c **** * Parameters:
 498:Generated_Source\PSoC5/SPIS_2.c **** *  txDataByte: The data value to send across the SPI.
 499:Generated_Source\PSoC5/SPIS_2.c **** *
 500:Generated_Source\PSoC5/SPIS_2.c **** * Return:
 501:Generated_Source\PSoC5/SPIS_2.c **** *  None.
 502:Generated_Source\PSoC5/SPIS_2.c **** *
 503:Generated_Source\PSoC5/SPIS_2.c **** * Global variables:
 504:Generated_Source\PSoC5/SPIS_2.c **** *  SPIS_2_txBufferWrite - used for the account of the bytes which
 505:Generated_Source\PSoC5/SPIS_2.c **** *  have been written down in the TX software buffer, modified every function
 506:Generated_Source\PSoC5/SPIS_2.c **** *  call if TX Software Buffer is used.
 507:Generated_Source\PSoC5/SPIS_2.c **** *  SPIS_2_txBufferRead - used for the account of the bytes which
 508:Generated_Source\PSoC5/SPIS_2.c **** *  have been read from the TX software buffer.
 509:Generated_Source\PSoC5/SPIS_2.c **** *  SPIS_2_txBuffer[SPIS_2_TX_BUFFER_SIZE] - used to store
 510:Generated_Source\PSoC5/SPIS_2.c **** *  data to sending, modified every function call if TX Software Buffer is used.
 511:Generated_Source\PSoC5/SPIS_2.c **** *
 512:Generated_Source\PSoC5/SPIS_2.c **** * Theory:
 513:Generated_Source\PSoC5/SPIS_2.c **** *  Allows the user to transmit any byte of data in a single transfer.
 514:Generated_Source\PSoC5/SPIS_2.c **** *
 515:Generated_Source\PSoC5/SPIS_2.c **** * Side Effects:
 516:Generated_Source\PSoC5/SPIS_2.c **** *  If this function is called again before the previous byte is finished then
ARM GAS  C:\Users\jespe\AppData\Local\Temp\ccgNOQ6g.s 			page 15


 517:Generated_Source\PSoC5/SPIS_2.c **** *  the next byte will be appended to the transfer with no time between
 518:Generated_Source\PSoC5/SPIS_2.c **** *  the byte transfers. Clear Tx status register of the component.
 519:Generated_Source\PSoC5/SPIS_2.c **** *
 520:Generated_Source\PSoC5/SPIS_2.c **** * Reentrant:
 521:Generated_Source\PSoC5/SPIS_2.c **** *  No.
 522:Generated_Source\PSoC5/SPIS_2.c **** *
 523:Generated_Source\PSoC5/SPIS_2.c **** *******************************************************************************/
 524:Generated_Source\PSoC5/SPIS_2.c **** void SPIS_2_WriteTxData(uint8 txData) 
 525:Generated_Source\PSoC5/SPIS_2.c **** {
 283              		.loc 1 525 0
 284              		.cfi_startproc
 285              		@ args = 0, pretend = 0, frame = 0
 286              		@ frame_needed = 0, uses_anonymous_args = 0
 287              		@ link register save eliminated.
 288              	.LVL8:
 289              	.L26:
 526:Generated_Source\PSoC5/SPIS_2.c ****     #if(SPIS_2_TX_SOFTWARE_BUF_ENABLED)
 527:Generated_Source\PSoC5/SPIS_2.c **** 
 528:Generated_Source\PSoC5/SPIS_2.c ****         uint8 tempStatus;
 529:Generated_Source\PSoC5/SPIS_2.c ****         uint8 tmpTxBufferRead;
 530:Generated_Source\PSoC5/SPIS_2.c **** 
 531:Generated_Source\PSoC5/SPIS_2.c ****         /* Block if buffer is full, so we don't overwrite. */
 532:Generated_Source\PSoC5/SPIS_2.c ****         do
 533:Generated_Source\PSoC5/SPIS_2.c ****         {
 534:Generated_Source\PSoC5/SPIS_2.c ****             tmpTxBufferRead = SPIS_2_txBufferRead;
 535:Generated_Source\PSoC5/SPIS_2.c ****             if (0u == tmpTxBufferRead)
 536:Generated_Source\PSoC5/SPIS_2.c ****             {
 537:Generated_Source\PSoC5/SPIS_2.c ****                 tmpTxBufferRead = SPIS_2_TX_BUFFER_SIZE - 1u;
 538:Generated_Source\PSoC5/SPIS_2.c ****             }
 539:Generated_Source\PSoC5/SPIS_2.c ****             else
 540:Generated_Source\PSoC5/SPIS_2.c ****             {
 541:Generated_Source\PSoC5/SPIS_2.c ****                 tmpTxBufferRead--;
 542:Generated_Source\PSoC5/SPIS_2.c ****             }
 543:Generated_Source\PSoC5/SPIS_2.c **** 
 544:Generated_Source\PSoC5/SPIS_2.c ****         }
 545:Generated_Source\PSoC5/SPIS_2.c ****         while(tmpTxBufferRead == SPIS_2_txBufferWrite);
 546:Generated_Source\PSoC5/SPIS_2.c **** 
 547:Generated_Source\PSoC5/SPIS_2.c ****         /* Disable Interrupt to protect variables that could change on interrupt. */
 548:Generated_Source\PSoC5/SPIS_2.c ****         SPIS_2_DisableTxInt();
 549:Generated_Source\PSoC5/SPIS_2.c **** 
 550:Generated_Source\PSoC5/SPIS_2.c ****         tempStatus = SPIS_2_GET_STATUS_TX(SPIS_2_swStatusTx);
 551:Generated_Source\PSoC5/SPIS_2.c ****         SPIS_2_swStatusTx = tempStatus;
 552:Generated_Source\PSoC5/SPIS_2.c **** 
 553:Generated_Source\PSoC5/SPIS_2.c ****         if((SPIS_2_txBufferRead == SPIS_2_txBufferWrite) &&
 554:Generated_Source\PSoC5/SPIS_2.c ****             (0u != (SPIS_2_swStatusTx & SPIS_2_STS_TX_FIFO_NOT_FULL)))
 555:Generated_Source\PSoC5/SPIS_2.c ****         {
 556:Generated_Source\PSoC5/SPIS_2.c ****             /* Put data element into the TX FIFO */
 557:Generated_Source\PSoC5/SPIS_2.c ****             CY_SET_REG8(SPIS_2_TXDATA_PTR, txData);
 558:Generated_Source\PSoC5/SPIS_2.c ****         }
 559:Generated_Source\PSoC5/SPIS_2.c ****         else
 560:Generated_Source\PSoC5/SPIS_2.c ****         {
 561:Generated_Source\PSoC5/SPIS_2.c ****             /* Put data element into the software buffer */
 562:Generated_Source\PSoC5/SPIS_2.c ****             SPIS_2_txBufferWrite++;
 563:Generated_Source\PSoC5/SPIS_2.c ****             if(SPIS_2_txBufferWrite >= SPIS_2_TX_BUFFER_SIZE)
 564:Generated_Source\PSoC5/SPIS_2.c ****             {
 565:Generated_Source\PSoC5/SPIS_2.c ****                 SPIS_2_txBufferWrite = 0u;
 566:Generated_Source\PSoC5/SPIS_2.c ****             }
ARM GAS  C:\Users\jespe\AppData\Local\Temp\ccgNOQ6g.s 			page 16


 567:Generated_Source\PSoC5/SPIS_2.c **** 
 568:Generated_Source\PSoC5/SPIS_2.c ****             if(SPIS_2_txBufferWrite == SPIS_2_txBufferRead)
 569:Generated_Source\PSoC5/SPIS_2.c ****             {
 570:Generated_Source\PSoC5/SPIS_2.c ****                 SPIS_2_txBufferRead++;
 571:Generated_Source\PSoC5/SPIS_2.c ****                 if(SPIS_2_txBufferRead >= SPIS_2_RX_BUFFER_SIZE)
 572:Generated_Source\PSoC5/SPIS_2.c ****                 {
 573:Generated_Source\PSoC5/SPIS_2.c ****                     SPIS_2_txBufferRead = 0u;
 574:Generated_Source\PSoC5/SPIS_2.c ****                 }
 575:Generated_Source\PSoC5/SPIS_2.c ****                 SPIS_2_txBufferFull = 1u;
 576:Generated_Source\PSoC5/SPIS_2.c ****             }
 577:Generated_Source\PSoC5/SPIS_2.c **** 
 578:Generated_Source\PSoC5/SPIS_2.c ****             SPIS_2_txBuffer[SPIS_2_txBufferWrite] = txData;
 579:Generated_Source\PSoC5/SPIS_2.c **** 
 580:Generated_Source\PSoC5/SPIS_2.c ****             SPIS_2_TX_STATUS_MASK_REG |= SPIS_2_STS_TX_FIFO_NOT_FULL;
 581:Generated_Source\PSoC5/SPIS_2.c ****         }
 582:Generated_Source\PSoC5/SPIS_2.c **** 
 583:Generated_Source\PSoC5/SPIS_2.c ****         /* Enable Interrupt. */
 584:Generated_Source\PSoC5/SPIS_2.c ****         SPIS_2_EnableTxInt();
 585:Generated_Source\PSoC5/SPIS_2.c **** 
 586:Generated_Source\PSoC5/SPIS_2.c ****     #else /* !SPIS_2_TX_SOFTWARE_BUF_ENABLED */
 587:Generated_Source\PSoC5/SPIS_2.c ****         /* Wait until TX FIFO has a place */
 588:Generated_Source\PSoC5/SPIS_2.c ****         while(0u == (SPIS_2_TX_STATUS_REG & SPIS_2_STS_TX_FIFO_NOT_FULL))
 290              		.loc 1 588 0 discriminator 1
 291 0000 034B     		ldr	r3, .L27
 292 0002 1B78     		ldrb	r3, [r3]	@ zero_extendqisi2
 293 0004 13F0020F 		tst	r3, #2
 294 0008 FAD0     		beq	.L26
 589:Generated_Source\PSoC5/SPIS_2.c ****         {
 590:Generated_Source\PSoC5/SPIS_2.c ****         }
 591:Generated_Source\PSoC5/SPIS_2.c **** 
 592:Generated_Source\PSoC5/SPIS_2.c ****         /* Put data element into the TX FIFO */
 593:Generated_Source\PSoC5/SPIS_2.c ****         CY_SET_REG8(SPIS_2_TXDATA_PTR, txData);
 295              		.loc 1 593 0
 296 000a 024B     		ldr	r3, .L27+4
 297 000c 1870     		strb	r0, [r3]
 298 000e 7047     		bx	lr
 299              	.L28:
 300              		.align	2
 301              	.L27:
 302 0010 68650040 		.word	1073767784
 303 0014 49640040 		.word	1073767497
 304              		.cfi_endproc
 305              	.LFE12:
 306              		.size	SPIS_2_WriteTxData, .-SPIS_2_WriteTxData
 307              		.section	.text.SPIS_2_WriteTxDataZero,"ax",%progbits
 308              		.align	2
 309              		.global	SPIS_2_WriteTxDataZero
 310              		.thumb
 311              		.thumb_func
 312              		.type	SPIS_2_WriteTxDataZero, %function
 313              	SPIS_2_WriteTxDataZero:
 314              	.LFB13:
 594:Generated_Source\PSoC5/SPIS_2.c ****         
 595:Generated_Source\PSoC5/SPIS_2.c ****     #endif /* SPIS_2_TX_SOFTWARE_BUF_ENABLED */
 596:Generated_Source\PSoC5/SPIS_2.c **** }
 597:Generated_Source\PSoC5/SPIS_2.c **** 
 598:Generated_Source\PSoC5/SPIS_2.c **** #if(SPIS_2_MODE_USE_ZERO != 0u)
ARM GAS  C:\Users\jespe\AppData\Local\Temp\ccgNOQ6g.s 			page 17


 599:Generated_Source\PSoC5/SPIS_2.c **** 
 600:Generated_Source\PSoC5/SPIS_2.c ****     /*******************************************************************************
 601:Generated_Source\PSoC5/SPIS_2.c ****     * Function Name: SPIS_2_WriteTxDataZero
 602:Generated_Source\PSoC5/SPIS_2.c ****     ********************************************************************************
 603:Generated_Source\PSoC5/SPIS_2.c ****     *
 604:Generated_Source\PSoC5/SPIS_2.c ****     * Summary:
 605:Generated_Source\PSoC5/SPIS_2.c ****     *  Write a byte zero of data to be sent across the SPI. This must be used in
 606:Generated_Source\PSoC5/SPIS_2.c ****     *  Mode 00 and 01 if the FIFO is empty and data is not being sent.
 607:Generated_Source\PSoC5/SPIS_2.c ****     *
 608:Generated_Source\PSoC5/SPIS_2.c ****     * Parameters:
 609:Generated_Source\PSoC5/SPIS_2.c ****     *  txDataByte: The data value to send across the SPI.
 610:Generated_Source\PSoC5/SPIS_2.c ****     *
 611:Generated_Source\PSoC5/SPIS_2.c ****     * Return:
 612:Generated_Source\PSoC5/SPIS_2.c ****     *  None.
 613:Generated_Source\PSoC5/SPIS_2.c ****     *
 614:Generated_Source\PSoC5/SPIS_2.c ****     * Theory:
 615:Generated_Source\PSoC5/SPIS_2.c ****     *  Allows the user to transmit any byte of data in a single transfer. Clear
 616:Generated_Source\PSoC5/SPIS_2.c ****     *  status register of the component.
 617:Generated_Source\PSoC5/SPIS_2.c ****     *
 618:Generated_Source\PSoC5/SPIS_2.c ****     *******************************************************************************/
 619:Generated_Source\PSoC5/SPIS_2.c ****     void SPIS_2_WriteTxDataZero(uint8 txDataByte)
 620:Generated_Source\PSoC5/SPIS_2.c ****                                         
 621:Generated_Source\PSoC5/SPIS_2.c ****     {
 315              		.loc 1 621 0
 316              		.cfi_startproc
 317              		@ args = 0, pretend = 0, frame = 0
 318              		@ frame_needed = 0, uses_anonymous_args = 0
 319              		@ link register save eliminated.
 320              	.LVL9:
 622:Generated_Source\PSoC5/SPIS_2.c ****         CY_SET_REG8(SPIS_2_TXDATA_ZERO_PTR, txDataByte);
 321              		.loc 1 622 0
 322 0000 014B     		ldr	r3, .L30
 323 0002 1870     		strb	r0, [r3]
 324 0004 7047     		bx	lr
 325              	.L31:
 326 0006 00BF     		.align	2
 327              	.L30:
 328 0008 09640040 		.word	1073767433
 329              		.cfi_endproc
 330              	.LFE13:
 331              		.size	SPIS_2_WriteTxDataZero, .-SPIS_2_WriteTxDataZero
 332              		.section	.text.SPIS_2_ReadRxData,"ax",%progbits
 333              		.align	2
 334              		.global	SPIS_2_ReadRxData
 335              		.thumb
 336              		.thumb_func
 337              		.type	SPIS_2_ReadRxData, %function
 338              	SPIS_2_ReadRxData:
 339              	.LFB14:
 623:Generated_Source\PSoC5/SPIS_2.c ****     }
 624:Generated_Source\PSoC5/SPIS_2.c **** 
 625:Generated_Source\PSoC5/SPIS_2.c **** #endif /* (SPIS_2_MODE_USE_ZERO != 0u) */
 626:Generated_Source\PSoC5/SPIS_2.c **** 
 627:Generated_Source\PSoC5/SPIS_2.c **** 
 628:Generated_Source\PSoC5/SPIS_2.c **** /*******************************************************************************
 629:Generated_Source\PSoC5/SPIS_2.c **** * Function Name: SPIS_2_ReadRxData
 630:Generated_Source\PSoC5/SPIS_2.c **** ********************************************************************************
ARM GAS  C:\Users\jespe\AppData\Local\Temp\ccgNOQ6g.s 			page 18


 631:Generated_Source\PSoC5/SPIS_2.c **** *
 632:Generated_Source\PSoC5/SPIS_2.c **** * Summary:
 633:Generated_Source\PSoC5/SPIS_2.c **** *  Read the next byte of data received across the SPI.
 634:Generated_Source\PSoC5/SPIS_2.c **** *
 635:Generated_Source\PSoC5/SPIS_2.c **** * Parameters:
 636:Generated_Source\PSoC5/SPIS_2.c **** *  None.
 637:Generated_Source\PSoC5/SPIS_2.c **** *
 638:Generated_Source\PSoC5/SPIS_2.c **** * Return:
 639:Generated_Source\PSoC5/SPIS_2.c **** *  The next byte of data read from the FIFO.
 640:Generated_Source\PSoC5/SPIS_2.c **** *
 641:Generated_Source\PSoC5/SPIS_2.c **** * Global variables:
 642:Generated_Source\PSoC5/SPIS_2.c **** *  SPIS_2_rxBufferWrite - used for the account of the bytes which
 643:Generated_Source\PSoC5/SPIS_2.c **** *  have been written down in the RX software buffer.
 644:Generated_Source\PSoC5/SPIS_2.c **** *  SPIS_2_rxBufferRead - used for the account of the bytes which
 645:Generated_Source\PSoC5/SPIS_2.c **** *  have been read from the RX software buffer, modified every function
 646:Generated_Source\PSoC5/SPIS_2.c **** *  call if RX Software Buffer is used.
 647:Generated_Source\PSoC5/SPIS_2.c **** *  SPIS_2_rxBuffer[SPIS_2_RX_BUFFER_SIZE] - used to store
 648:Generated_Source\PSoC5/SPIS_2.c **** *  received data.
 649:Generated_Source\PSoC5/SPIS_2.c **** *
 650:Generated_Source\PSoC5/SPIS_2.c **** * Theory:
 651:Generated_Source\PSoC5/SPIS_2.c **** *  Allows the user to read a byte of data received.
 652:Generated_Source\PSoC5/SPIS_2.c **** *
 653:Generated_Source\PSoC5/SPIS_2.c **** * Side Effects:
 654:Generated_Source\PSoC5/SPIS_2.c **** *  Will return invalid data if the FIFO is empty.  User should poll for FIFO
 655:Generated_Source\PSoC5/SPIS_2.c **** *  empty status before calling Read function.
 656:Generated_Source\PSoC5/SPIS_2.c **** *
 657:Generated_Source\PSoC5/SPIS_2.c **** * Reentrant:
 658:Generated_Source\PSoC5/SPIS_2.c **** *  No.
 659:Generated_Source\PSoC5/SPIS_2.c **** *
 660:Generated_Source\PSoC5/SPIS_2.c **** *******************************************************************************/
 661:Generated_Source\PSoC5/SPIS_2.c **** uint8 SPIS_2_ReadRxData(void) 
 662:Generated_Source\PSoC5/SPIS_2.c **** {
 340              		.loc 1 662 0
 341              		.cfi_startproc
 342              		@ args = 0, pretend = 0, frame = 0
 343              		@ frame_needed = 0, uses_anonymous_args = 0
 344              		@ link register save eliminated.
 663:Generated_Source\PSoC5/SPIS_2.c ****     uint8 rxData;
 664:Generated_Source\PSoC5/SPIS_2.c **** 
 665:Generated_Source\PSoC5/SPIS_2.c ****     #if(SPIS_2_RX_SOFTWARE_BUF_ENABLED)
 666:Generated_Source\PSoC5/SPIS_2.c **** 
 667:Generated_Source\PSoC5/SPIS_2.c ****         /* Disable Interrupt to protect variables that could change on interrupt. */
 668:Generated_Source\PSoC5/SPIS_2.c ****         SPIS_2_DisableRxInt();
 669:Generated_Source\PSoC5/SPIS_2.c **** 
 670:Generated_Source\PSoC5/SPIS_2.c ****         if(SPIS_2_rxBufferRead != SPIS_2_rxBufferWrite)
 671:Generated_Source\PSoC5/SPIS_2.c ****         {
 672:Generated_Source\PSoC5/SPIS_2.c ****             if(SPIS_2_rxBufferFull == 0u)
 673:Generated_Source\PSoC5/SPIS_2.c ****             {
 674:Generated_Source\PSoC5/SPIS_2.c ****                 SPIS_2_rxBufferRead++;
 675:Generated_Source\PSoC5/SPIS_2.c ****                 if(SPIS_2_rxBufferRead >= SPIS_2_RX_BUFFER_SIZE)
 676:Generated_Source\PSoC5/SPIS_2.c ****                 {
 677:Generated_Source\PSoC5/SPIS_2.c ****                     SPIS_2_rxBufferRead = 0u;
 678:Generated_Source\PSoC5/SPIS_2.c ****                 }
 679:Generated_Source\PSoC5/SPIS_2.c ****             }
 680:Generated_Source\PSoC5/SPIS_2.c ****             else
 681:Generated_Source\PSoC5/SPIS_2.c ****             {
 682:Generated_Source\PSoC5/SPIS_2.c ****                 SPIS_2_rxBufferFull = 0u;
ARM GAS  C:\Users\jespe\AppData\Local\Temp\ccgNOQ6g.s 			page 19


 683:Generated_Source\PSoC5/SPIS_2.c ****             }
 684:Generated_Source\PSoC5/SPIS_2.c ****         }
 685:Generated_Source\PSoC5/SPIS_2.c **** 
 686:Generated_Source\PSoC5/SPIS_2.c ****         rxData = SPIS_2_rxBuffer[SPIS_2_rxBufferRead];
 687:Generated_Source\PSoC5/SPIS_2.c **** 
 688:Generated_Source\PSoC5/SPIS_2.c ****         /* Enable Interrupt. */
 689:Generated_Source\PSoC5/SPIS_2.c ****         SPIS_2_EnableRxInt();
 690:Generated_Source\PSoC5/SPIS_2.c **** 
 691:Generated_Source\PSoC5/SPIS_2.c ****     #else /* !SPIS_2_RX_SOFTWARE_BUF_ENABLED */
 692:Generated_Source\PSoC5/SPIS_2.c **** 
 693:Generated_Source\PSoC5/SPIS_2.c ****         rxData = CY_GET_REG8(SPIS_2_RXDATA_PTR);
 345              		.loc 1 693 0
 346 0000 014B     		ldr	r3, .L33
 347 0002 1878     		ldrb	r0, [r3]	@ zero_extendqisi2
 348              	.LVL10:
 694:Generated_Source\PSoC5/SPIS_2.c **** 
 695:Generated_Source\PSoC5/SPIS_2.c ****     #endif /* SPIS_2_RX_SOFTWARE_BUF_ENABLED */
 696:Generated_Source\PSoC5/SPIS_2.c **** 
 697:Generated_Source\PSoC5/SPIS_2.c ****     return (rxData);
 698:Generated_Source\PSoC5/SPIS_2.c **** 
 699:Generated_Source\PSoC5/SPIS_2.c **** }
 349              		.loc 1 699 0
 350 0004 7047     		bx	lr
 351              	.L34:
 352 0006 00BF     		.align	2
 353              	.L33:
 354 0008 59640040 		.word	1073767513
 355              		.cfi_endproc
 356              	.LFE14:
 357              		.size	SPIS_2_ReadRxData, .-SPIS_2_ReadRxData
 358              		.section	.text.SPIS_2_GetRxBufferSize,"ax",%progbits
 359              		.align	2
 360              		.global	SPIS_2_GetRxBufferSize
 361              		.thumb
 362              		.thumb_func
 363              		.type	SPIS_2_GetRxBufferSize, %function
 364              	SPIS_2_GetRxBufferSize:
 365              	.LFB15:
 700:Generated_Source\PSoC5/SPIS_2.c **** 
 701:Generated_Source\PSoC5/SPIS_2.c **** 
 702:Generated_Source\PSoC5/SPIS_2.c **** /*******************************************************************************
 703:Generated_Source\PSoC5/SPIS_2.c **** * Function Name: SPIS_2_GetRxBufferSize
 704:Generated_Source\PSoC5/SPIS_2.c **** ********************************************************************************
 705:Generated_Source\PSoC5/SPIS_2.c **** *
 706:Generated_Source\PSoC5/SPIS_2.c **** * Summary:
 707:Generated_Source\PSoC5/SPIS_2.c **** *  Returns the number of bytes/words of data currently held in the RX buffer.
 708:Generated_Source\PSoC5/SPIS_2.c **** *  If RX Software Buffer not used then function return 0 if FIFO empty or 1 if
 709:Generated_Source\PSoC5/SPIS_2.c **** *  FIFO not empty. In another case function return size of RX Software Buffer.
 710:Generated_Source\PSoC5/SPIS_2.c **** *
 711:Generated_Source\PSoC5/SPIS_2.c **** * Parameters:
 712:Generated_Source\PSoC5/SPIS_2.c **** *  None.
 713:Generated_Source\PSoC5/SPIS_2.c **** *
 714:Generated_Source\PSoC5/SPIS_2.c **** * Return:
 715:Generated_Source\PSoC5/SPIS_2.c **** *  Integer count of the number of bytes/words in the RX buffer.
 716:Generated_Source\PSoC5/SPIS_2.c **** *
 717:Generated_Source\PSoC5/SPIS_2.c **** * Global variables:
 718:Generated_Source\PSoC5/SPIS_2.c **** *  SPIS_2_rxBufferWrite - used for the account of the bytes which
ARM GAS  C:\Users\jespe\AppData\Local\Temp\ccgNOQ6g.s 			page 20


 719:Generated_Source\PSoC5/SPIS_2.c **** *  have been written down in the RX software buffer.
 720:Generated_Source\PSoC5/SPIS_2.c **** *  SPIS_2_rxBufferRead - used for the account of the bytes which
 721:Generated_Source\PSoC5/SPIS_2.c **** *  have been read from the RX software buffer.
 722:Generated_Source\PSoC5/SPIS_2.c **** *
 723:Generated_Source\PSoC5/SPIS_2.c **** * Theory:
 724:Generated_Source\PSoC5/SPIS_2.c **** *  Allows the user to find out how full the RX Buffer is.
 725:Generated_Source\PSoC5/SPIS_2.c **** *
 726:Generated_Source\PSoC5/SPIS_2.c **** *******************************************************************************/
 727:Generated_Source\PSoC5/SPIS_2.c **** uint8 SPIS_2_GetRxBufferSize(void) 
 728:Generated_Source\PSoC5/SPIS_2.c **** {
 366              		.loc 1 728 0
 367              		.cfi_startproc
 368              		@ args = 0, pretend = 0, frame = 0
 369              		@ frame_needed = 0, uses_anonymous_args = 0
 370              		@ link register save eliminated.
 729:Generated_Source\PSoC5/SPIS_2.c ****     uint8 size;
 730:Generated_Source\PSoC5/SPIS_2.c **** 
 731:Generated_Source\PSoC5/SPIS_2.c ****     #if(SPIS_2_RX_SOFTWARE_BUF_ENABLED)
 732:Generated_Source\PSoC5/SPIS_2.c **** 
 733:Generated_Source\PSoC5/SPIS_2.c ****         /* Disable Interrupt to protect variables that could change on interrupt. */
 734:Generated_Source\PSoC5/SPIS_2.c ****         SPIS_2_DisableRxInt();
 735:Generated_Source\PSoC5/SPIS_2.c **** 
 736:Generated_Source\PSoC5/SPIS_2.c ****         if(SPIS_2_rxBufferRead == SPIS_2_rxBufferWrite)
 737:Generated_Source\PSoC5/SPIS_2.c ****         {
 738:Generated_Source\PSoC5/SPIS_2.c ****             size = 0u; /* No data in RX buffer */
 739:Generated_Source\PSoC5/SPIS_2.c ****         }
 740:Generated_Source\PSoC5/SPIS_2.c ****         else if(SPIS_2_rxBufferRead < SPIS_2_rxBufferWrite)
 741:Generated_Source\PSoC5/SPIS_2.c ****         {
 742:Generated_Source\PSoC5/SPIS_2.c ****             size = (SPIS_2_rxBufferWrite - SPIS_2_rxBufferRead);
 743:Generated_Source\PSoC5/SPIS_2.c ****         }
 744:Generated_Source\PSoC5/SPIS_2.c ****         else
 745:Generated_Source\PSoC5/SPIS_2.c ****         {
 746:Generated_Source\PSoC5/SPIS_2.c ****             size = (SPIS_2_RX_BUFFER_SIZE - SPIS_2_rxBufferRead) + SPIS_2_rxBufferWrite;
 747:Generated_Source\PSoC5/SPIS_2.c ****         }
 748:Generated_Source\PSoC5/SPIS_2.c **** 
 749:Generated_Source\PSoC5/SPIS_2.c ****         /* Enable interrupt. */
 750:Generated_Source\PSoC5/SPIS_2.c ****         SPIS_2_EnableRxInt();
 751:Generated_Source\PSoC5/SPIS_2.c **** 
 752:Generated_Source\PSoC5/SPIS_2.c ****     #else /* !SPIS_2_RX_SOFTWARE_BUF_ENABLED*/
 753:Generated_Source\PSoC5/SPIS_2.c **** 
 754:Generated_Source\PSoC5/SPIS_2.c ****         /* We can only know if there is data in the fifo. */
 755:Generated_Source\PSoC5/SPIS_2.c ****         size = ((SPIS_2_RX_STATUS_REG & SPIS_2_STS_RX_FIFO_NOT_EMPTY) != 0u) ? 1u : 0u;
 371              		.loc 1 755 0
 372 0000 044B     		ldr	r3, .L38
 373 0002 1B78     		ldrb	r3, [r3]	@ zero_extendqisi2
 374 0004 13F0080F 		tst	r3, #8
 375 0008 01D0     		beq	.L37
 376 000a 0120     		movs	r0, #1
 377 000c 7047     		bx	lr
 378              	.L37:
 379 000e 0020     		movs	r0, #0
 380              	.LVL11:
 756:Generated_Source\PSoC5/SPIS_2.c **** 
 757:Generated_Source\PSoC5/SPIS_2.c ****     #endif /* SPIS_2_RX_SOFTWARE_BUF_ENABLED */
 758:Generated_Source\PSoC5/SPIS_2.c **** 
 759:Generated_Source\PSoC5/SPIS_2.c ****     return (size);
 760:Generated_Source\PSoC5/SPIS_2.c **** }
ARM GAS  C:\Users\jespe\AppData\Local\Temp\ccgNOQ6g.s 			page 21


 381              		.loc 1 760 0
 382 0010 7047     		bx	lr
 383              	.L39:
 384 0012 00BF     		.align	2
 385              	.L38:
 386 0014 68640040 		.word	1073767528
 387              		.cfi_endproc
 388              	.LFE15:
 389              		.size	SPIS_2_GetRxBufferSize, .-SPIS_2_GetRxBufferSize
 390              		.section	.text.SPIS_2_GetTxBufferSize,"ax",%progbits
 391              		.align	2
 392              		.global	SPIS_2_GetTxBufferSize
 393              		.thumb
 394              		.thumb_func
 395              		.type	SPIS_2_GetTxBufferSize, %function
 396              	SPIS_2_GetTxBufferSize:
 397              	.LFB16:
 761:Generated_Source\PSoC5/SPIS_2.c **** 
 762:Generated_Source\PSoC5/SPIS_2.c **** 
 763:Generated_Source\PSoC5/SPIS_2.c **** /*******************************************************************************
 764:Generated_Source\PSoC5/SPIS_2.c **** * Function Name: SPIS_2_GetTxBufferSize
 765:Generated_Source\PSoC5/SPIS_2.c **** ********************************************************************************
 766:Generated_Source\PSoC5/SPIS_2.c **** *
 767:Generated_Source\PSoC5/SPIS_2.c **** * Summary:
 768:Generated_Source\PSoC5/SPIS_2.c **** *  Returns the number of bytes/words of data currently held in the TX buffer.
 769:Generated_Source\PSoC5/SPIS_2.c **** *  If TX Software Buffer not used then function return 0 - if FIFO empty, 1 - if
 770:Generated_Source\PSoC5/SPIS_2.c **** *  FIFO not full, 4 - if FIFO full. In another case function return size of TX
 771:Generated_Source\PSoC5/SPIS_2.c **** *  Software Buffer.
 772:Generated_Source\PSoC5/SPIS_2.c **** *
 773:Generated_Source\PSoC5/SPIS_2.c **** * Parameters:
 774:Generated_Source\PSoC5/SPIS_2.c **** *  None.
 775:Generated_Source\PSoC5/SPIS_2.c **** *
 776:Generated_Source\PSoC5/SPIS_2.c **** * Return:
 777:Generated_Source\PSoC5/SPIS_2.c **** *  Integer count of the number of bytes/words in the TX buffer.
 778:Generated_Source\PSoC5/SPIS_2.c **** *
 779:Generated_Source\PSoC5/SPIS_2.c **** * Global variables:
 780:Generated_Source\PSoC5/SPIS_2.c **** *  SPIS_2_txBufferWrite - used for the account of the bytes which
 781:Generated_Source\PSoC5/SPIS_2.c **** *  have been written down in the TX software buffer.
 782:Generated_Source\PSoC5/SPIS_2.c **** *  SPIS_2_txBufferRead - used for the account of the bytes which
 783:Generated_Source\PSoC5/SPIS_2.c **** *  have been read from the TX software buffer.
 784:Generated_Source\PSoC5/SPIS_2.c **** *
 785:Generated_Source\PSoC5/SPIS_2.c **** * Theory:
 786:Generated_Source\PSoC5/SPIS_2.c **** *  Allows the user to find out how full the TX Buffer is.
 787:Generated_Source\PSoC5/SPIS_2.c **** *
 788:Generated_Source\PSoC5/SPIS_2.c **** * Side Effects:
 789:Generated_Source\PSoC5/SPIS_2.c **** *  Clear status register of the component.
 790:Generated_Source\PSoC5/SPIS_2.c **** *
 791:Generated_Source\PSoC5/SPIS_2.c **** *******************************************************************************/
 792:Generated_Source\PSoC5/SPIS_2.c **** uint8  SPIS_2_GetTxBufferSize(void) 
 793:Generated_Source\PSoC5/SPIS_2.c **** {
 398              		.loc 1 793 0
 399              		.cfi_startproc
 400              		@ args = 0, pretend = 0, frame = 0
 401              		@ frame_needed = 0, uses_anonymous_args = 0
 402              		@ link register save eliminated.
 794:Generated_Source\PSoC5/SPIS_2.c ****     uint8 size;
 795:Generated_Source\PSoC5/SPIS_2.c **** 
ARM GAS  C:\Users\jespe\AppData\Local\Temp\ccgNOQ6g.s 			page 22


 796:Generated_Source\PSoC5/SPIS_2.c ****     #if(SPIS_2_TX_SOFTWARE_BUF_ENABLED)
 797:Generated_Source\PSoC5/SPIS_2.c **** 
 798:Generated_Source\PSoC5/SPIS_2.c ****         /* Disable Interrupt to protect variables that could change on interrupt. */
 799:Generated_Source\PSoC5/SPIS_2.c ****         SPIS_2_DisableTxInt();
 800:Generated_Source\PSoC5/SPIS_2.c **** 
 801:Generated_Source\PSoC5/SPIS_2.c ****         if(SPIS_2_txBufferRead == SPIS_2_txBufferWrite)
 802:Generated_Source\PSoC5/SPIS_2.c ****         {
 803:Generated_Source\PSoC5/SPIS_2.c ****             size = 0u;
 804:Generated_Source\PSoC5/SPIS_2.c ****         }
 805:Generated_Source\PSoC5/SPIS_2.c ****         else if(SPIS_2_txBufferRead < SPIS_2_txBufferWrite)
 806:Generated_Source\PSoC5/SPIS_2.c ****         {
 807:Generated_Source\PSoC5/SPIS_2.c ****             size = (SPIS_2_txBufferWrite - SPIS_2_txBufferRead);
 808:Generated_Source\PSoC5/SPIS_2.c ****         }
 809:Generated_Source\PSoC5/SPIS_2.c ****         else
 810:Generated_Source\PSoC5/SPIS_2.c ****         {
 811:Generated_Source\PSoC5/SPIS_2.c ****             size = (SPIS_2_TX_BUFFER_SIZE - SPIS_2_txBufferRead) + SPIS_2_txBufferWrite;
 812:Generated_Source\PSoC5/SPIS_2.c ****         }
 813:Generated_Source\PSoC5/SPIS_2.c **** 
 814:Generated_Source\PSoC5/SPIS_2.c ****         /* Enable Interrupt. */
 815:Generated_Source\PSoC5/SPIS_2.c ****         SPIS_2_EnableTxInt();
 816:Generated_Source\PSoC5/SPIS_2.c **** 
 817:Generated_Source\PSoC5/SPIS_2.c ****     #else /* !SPIS_2_TX_SOFTWARE_BUF_ENABLED */
 818:Generated_Source\PSoC5/SPIS_2.c **** 
 819:Generated_Source\PSoC5/SPIS_2.c ****         size = SPIS_2_TX_STATUS_REG;
 403              		.loc 1 819 0
 404 0000 074B     		ldr	r3, .L44
 405 0002 1B78     		ldrb	r3, [r3]	@ zero_extendqisi2
 406 0004 DBB2     		uxtb	r3, r3
 407              	.LVL12:
 820:Generated_Source\PSoC5/SPIS_2.c **** 
 821:Generated_Source\PSoC5/SPIS_2.c ****         /* Is the fifo is full. */
 822:Generated_Source\PSoC5/SPIS_2.c ****         if((size & SPIS_2_STS_TX_FIFO_EMPTY) != 0u)
 408              		.loc 1 822 0
 409 0006 13F0040F 		tst	r3, #4
 410 000a 04D1     		bne	.L42
 823:Generated_Source\PSoC5/SPIS_2.c ****         {
 824:Generated_Source\PSoC5/SPIS_2.c ****             size = 0u;
 825:Generated_Source\PSoC5/SPIS_2.c ****         }
 826:Generated_Source\PSoC5/SPIS_2.c ****         else if((size & SPIS_2_STS_TX_FIFO_NOT_FULL) != 0u)
 411              		.loc 1 826 0
 412 000c 13F0020F 		tst	r3, #2
 413 0010 03D0     		beq	.L43
 827:Generated_Source\PSoC5/SPIS_2.c ****         {
 828:Generated_Source\PSoC5/SPIS_2.c ****             size = 1u;
 414              		.loc 1 828 0
 415 0012 0120     		movs	r0, #1
 416 0014 7047     		bx	lr
 417              	.L42:
 824:Generated_Source\PSoC5/SPIS_2.c ****         }
 418              		.loc 1 824 0
 419 0016 0020     		movs	r0, #0
 420 0018 7047     		bx	lr
 421              	.L43:
 829:Generated_Source\PSoC5/SPIS_2.c ****         }
 830:Generated_Source\PSoC5/SPIS_2.c ****         else
 831:Generated_Source\PSoC5/SPIS_2.c ****         {
 832:Generated_Source\PSoC5/SPIS_2.c ****             size = 4u;
ARM GAS  C:\Users\jespe\AppData\Local\Temp\ccgNOQ6g.s 			page 23


 422              		.loc 1 832 0
 423 001a 0420     		movs	r0, #4
 424              	.LVL13:
 833:Generated_Source\PSoC5/SPIS_2.c ****         }
 834:Generated_Source\PSoC5/SPIS_2.c **** 
 835:Generated_Source\PSoC5/SPIS_2.c ****     #endif /* SPIS_2_TX_SOFTWARE_BUF_ENABLED */
 836:Generated_Source\PSoC5/SPIS_2.c **** 
 837:Generated_Source\PSoC5/SPIS_2.c ****     return (size);
 838:Generated_Source\PSoC5/SPIS_2.c **** }
 425              		.loc 1 838 0
 426 001c 7047     		bx	lr
 427              	.L45:
 428 001e 00BF     		.align	2
 429              	.L44:
 430 0020 68650040 		.word	1073767784
 431              		.cfi_endproc
 432              	.LFE16:
 433              		.size	SPIS_2_GetTxBufferSize, .-SPIS_2_GetTxBufferSize
 434              		.section	.text.SPIS_2_ClearRxBuffer,"ax",%progbits
 435              		.align	2
 436              		.global	SPIS_2_ClearRxBuffer
 437              		.thumb
 438              		.thumb_func
 439              		.type	SPIS_2_ClearRxBuffer, %function
 440              	SPIS_2_ClearRxBuffer:
 441              	.LFB17:
 839:Generated_Source\PSoC5/SPIS_2.c **** 
 840:Generated_Source\PSoC5/SPIS_2.c **** 
 841:Generated_Source\PSoC5/SPIS_2.c **** /*******************************************************************************
 842:Generated_Source\PSoC5/SPIS_2.c **** * Function Name: SPIS_2_ClearRxBuffer
 843:Generated_Source\PSoC5/SPIS_2.c **** ********************************************************************************
 844:Generated_Source\PSoC5/SPIS_2.c **** *
 845:Generated_Source\PSoC5/SPIS_2.c **** * Summary:
 846:Generated_Source\PSoC5/SPIS_2.c **** *  Clear the RX RAM buffer by setting the read and write pointers both to zero.
 847:Generated_Source\PSoC5/SPIS_2.c **** *
 848:Generated_Source\PSoC5/SPIS_2.c **** * Parameters:
 849:Generated_Source\PSoC5/SPIS_2.c **** *  None.
 850:Generated_Source\PSoC5/SPIS_2.c **** *
 851:Generated_Source\PSoC5/SPIS_2.c **** * Return:
 852:Generated_Source\PSoC5/SPIS_2.c **** *  None.
 853:Generated_Source\PSoC5/SPIS_2.c **** *
 854:Generated_Source\PSoC5/SPIS_2.c **** * Global variables:
 855:Generated_Source\PSoC5/SPIS_2.c **** *  SPIS_2_rxBufferWrite - used for the account of the bytes which
 856:Generated_Source\PSoC5/SPIS_2.c **** *  have been written down in the RX software buffer, modified every function
 857:Generated_Source\PSoC5/SPIS_2.c **** *  call - resets to zero.
 858:Generated_Source\PSoC5/SPIS_2.c **** *  SPIS_2_rxBufferRead - used for the account of the bytes which
 859:Generated_Source\PSoC5/SPIS_2.c **** *  have been read from the RX software buffer, modified every function call -
 860:Generated_Source\PSoC5/SPIS_2.c **** *  resets to zero.
 861:Generated_Source\PSoC5/SPIS_2.c **** *
 862:Generated_Source\PSoC5/SPIS_2.c **** * Theory:
 863:Generated_Source\PSoC5/SPIS_2.c **** *  Setting the pointers to zero makes the system believe there is no data to
 864:Generated_Source\PSoC5/SPIS_2.c **** *  read and writing will resume at address 0 overwriting any data that may have
 865:Generated_Source\PSoC5/SPIS_2.c **** *  remained in the RAM.
 866:Generated_Source\PSoC5/SPIS_2.c **** *
 867:Generated_Source\PSoC5/SPIS_2.c **** * Side Effects:
 868:Generated_Source\PSoC5/SPIS_2.c **** *  Any received data not read from the RAM buffer will be lost when overwritten.
 869:Generated_Source\PSoC5/SPIS_2.c **** *
ARM GAS  C:\Users\jespe\AppData\Local\Temp\ccgNOQ6g.s 			page 24


 870:Generated_Source\PSoC5/SPIS_2.c **** * Reentrant:
 871:Generated_Source\PSoC5/SPIS_2.c **** *  No.
 872:Generated_Source\PSoC5/SPIS_2.c **** *
 873:Generated_Source\PSoC5/SPIS_2.c **** *******************************************************************************/
 874:Generated_Source\PSoC5/SPIS_2.c **** void SPIS_2_ClearRxBuffer(void) 
 875:Generated_Source\PSoC5/SPIS_2.c **** {
 442              		.loc 1 875 0
 443              		.cfi_startproc
 444              		@ args = 0, pretend = 0, frame = 0
 445              		@ frame_needed = 0, uses_anonymous_args = 0
 446              		@ link register save eliminated.
 876:Generated_Source\PSoC5/SPIS_2.c ****     /* Clear Hardware RX FIFO */
 877:Generated_Source\PSoC5/SPIS_2.c ****     while((SPIS_2_RX_STATUS_REG & SPIS_2_STS_RX_FIFO_NOT_EMPTY) != 0u)
 447              		.loc 1 877 0
 448 0000 01E0     		b	.L47
 449              	.L48:
 878:Generated_Source\PSoC5/SPIS_2.c ****     {
 879:Generated_Source\PSoC5/SPIS_2.c ****         CY_GET_REG8(SPIS_2_RXDATA_PTR);
 450              		.loc 1 879 0
 451 0002 044B     		ldr	r3, .L49
 452 0004 1B78     		ldrb	r3, [r3]	@ zero_extendqisi2
 453              	.L47:
 877:Generated_Source\PSoC5/SPIS_2.c ****     {
 454              		.loc 1 877 0
 455 0006 044B     		ldr	r3, .L49+4
 456 0008 1B78     		ldrb	r3, [r3]	@ zero_extendqisi2
 457 000a 13F0080F 		tst	r3, #8
 458 000e F8D1     		bne	.L48
 880:Generated_Source\PSoC5/SPIS_2.c ****     }
 881:Generated_Source\PSoC5/SPIS_2.c **** 
 882:Generated_Source\PSoC5/SPIS_2.c ****     #if(SPIS_2_RX_SOFTWARE_BUF_ENABLED)
 883:Generated_Source\PSoC5/SPIS_2.c **** 
 884:Generated_Source\PSoC5/SPIS_2.c ****         /* Disable interrupt to protect variables that could change on interrupt. */
 885:Generated_Source\PSoC5/SPIS_2.c ****         SPIS_2_DisableRxInt();
 886:Generated_Source\PSoC5/SPIS_2.c **** 
 887:Generated_Source\PSoC5/SPIS_2.c ****         SPIS_2_rxBufferRead  = 0u;
 888:Generated_Source\PSoC5/SPIS_2.c ****         SPIS_2_rxBufferWrite = 0u;
 889:Generated_Source\PSoC5/SPIS_2.c **** 		SPIS_2_rxBufferFull  = 0u;
 890:Generated_Source\PSoC5/SPIS_2.c ****         /* Enable interrupt. */
 891:Generated_Source\PSoC5/SPIS_2.c ****         SPIS_2_EnableRxInt();
 892:Generated_Source\PSoC5/SPIS_2.c **** 
 893:Generated_Source\PSoC5/SPIS_2.c ****     #endif /* SPIS_2_RX_SOFTWARE_BUF_ENABLED */
 894:Generated_Source\PSoC5/SPIS_2.c **** }
 459              		.loc 1 894 0
 460 0010 7047     		bx	lr
 461              	.L50:
 462 0012 00BF     		.align	2
 463              	.L49:
 464 0014 59640040 		.word	1073767513
 465 0018 68640040 		.word	1073767528
 466              		.cfi_endproc
 467              	.LFE17:
 468              		.size	SPIS_2_ClearRxBuffer, .-SPIS_2_ClearRxBuffer
 469              		.section	.text.SPIS_2_ClearTxBuffer,"ax",%progbits
 470              		.align	2
 471              		.global	SPIS_2_ClearTxBuffer
 472              		.thumb
ARM GAS  C:\Users\jespe\AppData\Local\Temp\ccgNOQ6g.s 			page 25


 473              		.thumb_func
 474              		.type	SPIS_2_ClearTxBuffer, %function
 475              	SPIS_2_ClearTxBuffer:
 476              	.LFB18:
 895:Generated_Source\PSoC5/SPIS_2.c **** 
 896:Generated_Source\PSoC5/SPIS_2.c **** 
 897:Generated_Source\PSoC5/SPIS_2.c **** /*******************************************************************************
 898:Generated_Source\PSoC5/SPIS_2.c **** * Function Name: SPIS_2_ClearTxBuffer
 899:Generated_Source\PSoC5/SPIS_2.c **** ********************************************************************************
 900:Generated_Source\PSoC5/SPIS_2.c **** *
 901:Generated_Source\PSoC5/SPIS_2.c **** * Summary:
 902:Generated_Source\PSoC5/SPIS_2.c **** *  Clear the TX RAM buffer by setting the read and write pointers both to zero.
 903:Generated_Source\PSoC5/SPIS_2.c **** *
 904:Generated_Source\PSoC5/SPIS_2.c **** * Parameters:
 905:Generated_Source\PSoC5/SPIS_2.c **** *  None.
 906:Generated_Source\PSoC5/SPIS_2.c **** *
 907:Generated_Source\PSoC5/SPIS_2.c **** * Return:
 908:Generated_Source\PSoC5/SPIS_2.c **** *  None.
 909:Generated_Source\PSoC5/SPIS_2.c **** *
 910:Generated_Source\PSoC5/SPIS_2.c **** * Global variables:
 911:Generated_Source\PSoC5/SPIS_2.c **** *  SPIS_2_txBufferWrite - used for the account of the bytes which
 912:Generated_Source\PSoC5/SPIS_2.c **** *  have been written down in the TX software buffer, modified every function
 913:Generated_Source\PSoC5/SPIS_2.c **** *  call - resets to zero.
 914:Generated_Source\PSoC5/SPIS_2.c **** *  SPIS_2_txBufferRead - used for the account of the bytes which
 915:Generated_Source\PSoC5/SPIS_2.c **** *  have been read from the TX software buffer, modified every function call -
 916:Generated_Source\PSoC5/SPIS_2.c **** *  resets to zero.
 917:Generated_Source\PSoC5/SPIS_2.c **** *
 918:Generated_Source\PSoC5/SPIS_2.c **** * Theory:
 919:Generated_Source\PSoC5/SPIS_2.c **** *  Setting the pointers to zero makes the system believe there is no data to
 920:Generated_Source\PSoC5/SPIS_2.c **** *  read and writing will resume at address 0 overwriting any data that may have
 921:Generated_Source\PSoC5/SPIS_2.c **** *  remained in the RAM.
 922:Generated_Source\PSoC5/SPIS_2.c **** *
 923:Generated_Source\PSoC5/SPIS_2.c **** * Side Effects:
 924:Generated_Source\PSoC5/SPIS_2.c **** *  Any data not yet transmitted from the RAM buffer will be lost when
 925:Generated_Source\PSoC5/SPIS_2.c **** *  overwritten.
 926:Generated_Source\PSoC5/SPIS_2.c **** *
 927:Generated_Source\PSoC5/SPIS_2.c **** * Reentrant:
 928:Generated_Source\PSoC5/SPIS_2.c **** *  No.
 929:Generated_Source\PSoC5/SPIS_2.c **** *
 930:Generated_Source\PSoC5/SPIS_2.c **** *******************************************************************************/
 931:Generated_Source\PSoC5/SPIS_2.c **** void SPIS_2_ClearTxBuffer(void) 
 932:Generated_Source\PSoC5/SPIS_2.c **** {
 477              		.loc 1 932 0
 478              		.cfi_startproc
 479              		@ args = 0, pretend = 0, frame = 0
 480              		@ frame_needed = 0, uses_anonymous_args = 0
 481 0000 08B5     		push	{r3, lr}
 482              		.cfi_def_cfa_offset 8
 483              		.cfi_offset 3, -8
 484              		.cfi_offset 14, -4
 933:Generated_Source\PSoC5/SPIS_2.c ****     uint8 enableInterrupts;
 934:Generated_Source\PSoC5/SPIS_2.c **** 
 935:Generated_Source\PSoC5/SPIS_2.c ****     /* Clear Hardware TX FIFO */
 936:Generated_Source\PSoC5/SPIS_2.c ****     enableInterrupts = CyEnterCriticalSection();
 485              		.loc 1 936 0
 486 0002 FFF7FEFF 		bl	CyEnterCriticalSection
 487              	.LVL14:
ARM GAS  C:\Users\jespe\AppData\Local\Temp\ccgNOQ6g.s 			page 26


 937:Generated_Source\PSoC5/SPIS_2.c **** 
 938:Generated_Source\PSoC5/SPIS_2.c ****     #if(SPIS_2_DATA_WIDTH <= 8u)
 939:Generated_Source\PSoC5/SPIS_2.c **** 
 940:Generated_Source\PSoC5/SPIS_2.c ****         /* Clear TX FIFO */
 941:Generated_Source\PSoC5/SPIS_2.c ****         SPIS_2_TX_AUX_CONTROL_DP0_REG |= (uint8)SPIS_2_FIFO_CLR;
 488              		.loc 1 941 0
 489 0006 064B     		ldr	r3, .L53
 490 0008 1A78     		ldrb	r2, [r3]	@ zero_extendqisi2
 491 000a 42F00302 		orr	r2, r2, #3
 492 000e 1A70     		strb	r2, [r3]
 942:Generated_Source\PSoC5/SPIS_2.c ****         SPIS_2_TX_AUX_CONTROL_DP0_REG &= (uint8)~SPIS_2_FIFO_CLR;
 493              		.loc 1 942 0
 494 0010 1A78     		ldrb	r2, [r3]	@ zero_extendqisi2
 495 0012 02F0FC02 		and	r2, r2, #252
 496 0016 1A70     		strb	r2, [r3]
 943:Generated_Source\PSoC5/SPIS_2.c **** 
 944:Generated_Source\PSoC5/SPIS_2.c ****     #else
 945:Generated_Source\PSoC5/SPIS_2.c **** 
 946:Generated_Source\PSoC5/SPIS_2.c ****         /* Clear TX FIFO */
 947:Generated_Source\PSoC5/SPIS_2.c ****         SPIS_2_TX_AUX_CONTROL_DP0_REG |= (uint8)SPIS_2_FIFO_CLR;
 948:Generated_Source\PSoC5/SPIS_2.c ****         SPIS_2_TX_AUX_CONTROL_DP0_REG &= (uint8)~SPIS_2_FIFO_CLR;
 949:Generated_Source\PSoC5/SPIS_2.c ****         SPIS_2_TX_AUX_CONTROL_DP1_REG |= (uint8)SPIS_2_FIFO_CLR;
 950:Generated_Source\PSoC5/SPIS_2.c ****         SPIS_2_TX_AUX_CONTROL_DP1_REG &= (uint8)~SPIS_2_FIFO_CLR;
 951:Generated_Source\PSoC5/SPIS_2.c **** 
 952:Generated_Source\PSoC5/SPIS_2.c ****     #endif /* SPIS_2_DATA_WIDTH > 8u */
 953:Generated_Source\PSoC5/SPIS_2.c **** 
 954:Generated_Source\PSoC5/SPIS_2.c ****     CyExitCriticalSection(enableInterrupts);
 497              		.loc 1 954 0
 498 0018 FFF7FEFF 		bl	CyExitCriticalSection
 499              	.LVL15:
 500 001c 08BD     		pop	{r3, pc}
 501              	.L54:
 502 001e 00BF     		.align	2
 503              	.L53:
 504 0020 99640040 		.word	1073767577
 505              		.cfi_endproc
 506              	.LFE18:
 507              		.size	SPIS_2_ClearTxBuffer, .-SPIS_2_ClearTxBuffer
 508              		.section	.text.SPIS_2_PutArray,"ax",%progbits
 509              		.align	2
 510              		.global	SPIS_2_PutArray
 511              		.thumb
 512              		.thumb_func
 513              		.type	SPIS_2_PutArray, %function
 514              	SPIS_2_PutArray:
 515              	.LFB19:
 955:Generated_Source\PSoC5/SPIS_2.c **** 
 956:Generated_Source\PSoC5/SPIS_2.c ****     #if(SPIS_2_TX_SOFTWARE_BUF_ENABLED)
 957:Generated_Source\PSoC5/SPIS_2.c **** 
 958:Generated_Source\PSoC5/SPIS_2.c ****         /* Disable Interrupt to protect variables that could change on interrupt. */
 959:Generated_Source\PSoC5/SPIS_2.c ****         SPIS_2_DisableTxInt();
 960:Generated_Source\PSoC5/SPIS_2.c **** 
 961:Generated_Source\PSoC5/SPIS_2.c ****         SPIS_2_txBufferRead  = 0u;
 962:Generated_Source\PSoC5/SPIS_2.c ****         SPIS_2_txBufferWrite = 0u;
 963:Generated_Source\PSoC5/SPIS_2.c **** 		SPIS_2_txBufferFull  = 0u;
 964:Generated_Source\PSoC5/SPIS_2.c **** 		
 965:Generated_Source\PSoC5/SPIS_2.c ****         /* If Buffer is empty then disable TX FIFO status interrupt */
ARM GAS  C:\Users\jespe\AppData\Local\Temp\ccgNOQ6g.s 			page 27


 966:Generated_Source\PSoC5/SPIS_2.c ****         SPIS_2_TX_STATUS_MASK_REG &= (uint8)~SPIS_2_STS_TX_FIFO_NOT_FULL;
 967:Generated_Source\PSoC5/SPIS_2.c **** 
 968:Generated_Source\PSoC5/SPIS_2.c ****         /* Enable Interrupt. */
 969:Generated_Source\PSoC5/SPIS_2.c ****         SPIS_2_EnableTxInt();
 970:Generated_Source\PSoC5/SPIS_2.c **** 
 971:Generated_Source\PSoC5/SPIS_2.c ****     #endif /* SPIS_2_TX_SOFTWARE_BUF_ENABLED */
 972:Generated_Source\PSoC5/SPIS_2.c **** }
 973:Generated_Source\PSoC5/SPIS_2.c **** 
 974:Generated_Source\PSoC5/SPIS_2.c **** 
 975:Generated_Source\PSoC5/SPIS_2.c **** #if (SPIS_2_BIDIRECTIONAL_MODE != 0u)
 976:Generated_Source\PSoC5/SPIS_2.c **** 
 977:Generated_Source\PSoC5/SPIS_2.c ****     /*******************************************************************************
 978:Generated_Source\PSoC5/SPIS_2.c ****     * Function Name: SPIS_2_TxEnable
 979:Generated_Source\PSoC5/SPIS_2.c ****     ********************************************************************************
 980:Generated_Source\PSoC5/SPIS_2.c ****     *
 981:Generated_Source\PSoC5/SPIS_2.c ****     * Summary:
 982:Generated_Source\PSoC5/SPIS_2.c ****     *  If the SPI Slave is configured to use a single bi-directional pin then this
 983:Generated_Source\PSoC5/SPIS_2.c ****     *  will set the bi-directional pin to transmit.
 984:Generated_Source\PSoC5/SPIS_2.c ****     *
 985:Generated_Source\PSoC5/SPIS_2.c ****     * Parameters:
 986:Generated_Source\PSoC5/SPIS_2.c ****     *  None.
 987:Generated_Source\PSoC5/SPIS_2.c ****     *
 988:Generated_Source\PSoC5/SPIS_2.c ****     * Return:
 989:Generated_Source\PSoC5/SPIS_2.c ****     *  None.
 990:Generated_Source\PSoC5/SPIS_2.c ****     *
 991:Generated_Source\PSoC5/SPIS_2.c ****     *******************************************************************************/
 992:Generated_Source\PSoC5/SPIS_2.c ****     void SPIS_2_TxEnable(void) 
 993:Generated_Source\PSoC5/SPIS_2.c ****     {
 994:Generated_Source\PSoC5/SPIS_2.c ****             SPIS_2_CONTROL_REG |= SPIS_2_CTRL_TX_SIGNAL_EN;
 995:Generated_Source\PSoC5/SPIS_2.c ****     }
 996:Generated_Source\PSoC5/SPIS_2.c **** 
 997:Generated_Source\PSoC5/SPIS_2.c **** 
 998:Generated_Source\PSoC5/SPIS_2.c ****     /*******************************************************************************
 999:Generated_Source\PSoC5/SPIS_2.c ****     * Function Name: SPIS_2_TxDisable
1000:Generated_Source\PSoC5/SPIS_2.c ****     ********************************************************************************
1001:Generated_Source\PSoC5/SPIS_2.c ****     *
1002:Generated_Source\PSoC5/SPIS_2.c ****     * Summary:
1003:Generated_Source\PSoC5/SPIS_2.c ****     *  If the SPI Slave is configured to use a single bi-directional pin then this
1004:Generated_Source\PSoC5/SPIS_2.c ****     *  will set the bi-directional pin to receive.
1005:Generated_Source\PSoC5/SPIS_2.c ****     *
1006:Generated_Source\PSoC5/SPIS_2.c ****     * Parameters:
1007:Generated_Source\PSoC5/SPIS_2.c ****     *  None.
1008:Generated_Source\PSoC5/SPIS_2.c ****     *
1009:Generated_Source\PSoC5/SPIS_2.c ****     * Return:
1010:Generated_Source\PSoC5/SPIS_2.c ****     *  None.
1011:Generated_Source\PSoC5/SPIS_2.c ****     *
1012:Generated_Source\PSoC5/SPIS_2.c ****     *******************************************************************************/
1013:Generated_Source\PSoC5/SPIS_2.c ****     void SPIS_2_TxDisable(void) 
1014:Generated_Source\PSoC5/SPIS_2.c ****     {
1015:Generated_Source\PSoC5/SPIS_2.c ****             SPIS_2_CONTROL_REG &= (uint8)~SPIS_2_CTRL_TX_SIGNAL_EN;
1016:Generated_Source\PSoC5/SPIS_2.c ****     }
1017:Generated_Source\PSoC5/SPIS_2.c **** 
1018:Generated_Source\PSoC5/SPIS_2.c **** #endif /* SPIS_2_BIDIRECTIONAL_MODE != 0u */
1019:Generated_Source\PSoC5/SPIS_2.c **** 
1020:Generated_Source\PSoC5/SPIS_2.c **** 
1021:Generated_Source\PSoC5/SPIS_2.c **** /*******************************************************************************
1022:Generated_Source\PSoC5/SPIS_2.c **** * Function Name: SPIS_2_PutArray
ARM GAS  C:\Users\jespe\AppData\Local\Temp\ccgNOQ6g.s 			page 28


1023:Generated_Source\PSoC5/SPIS_2.c **** ********************************************************************************
1024:Generated_Source\PSoC5/SPIS_2.c **** *
1025:Generated_Source\PSoC5/SPIS_2.c **** * Summary:
1026:Generated_Source\PSoC5/SPIS_2.c **** *  Write available data from RAM/ROM to the TX buffer while space is available
1027:Generated_Source\PSoC5/SPIS_2.c **** *  in the TX buffer. Keep trying until all data is passed to the TX buffer. If
1028:Generated_Source\PSoC5/SPIS_2.c **** *  used Mode 00 or 01 before PutArray() function should be called
1029:Generated_Source\PSoC5/SPIS_2.c **** *  WriteTxDataZero() function.
1030:Generated_Source\PSoC5/SPIS_2.c **** *
1031:Generated_Source\PSoC5/SPIS_2.c **** * Parameters:
1032:Generated_Source\PSoC5/SPIS_2.c **** *  *buffer: Pointer to the location in RAM containing the data to send
1033:Generated_Source\PSoC5/SPIS_2.c **** *  byteCount: The number of bytes to move to the transmit buffer.
1034:Generated_Source\PSoC5/SPIS_2.c **** *
1035:Generated_Source\PSoC5/SPIS_2.c **** * Return:
1036:Generated_Source\PSoC5/SPIS_2.c **** *  None.
1037:Generated_Source\PSoC5/SPIS_2.c **** *
1038:Generated_Source\PSoC5/SPIS_2.c **** * Side Effects:
1039:Generated_Source\PSoC5/SPIS_2.c **** *  Will stay in this routine until all data has been sent.  May get locked in
1040:Generated_Source\PSoC5/SPIS_2.c **** *  this loop if data is not being initiated by the master if there is not
1041:Generated_Source\PSoC5/SPIS_2.c **** *  enough room in the TX FIFO.
1042:Generated_Source\PSoC5/SPIS_2.c **** *
1043:Generated_Source\PSoC5/SPIS_2.c **** * Reentrant:
1044:Generated_Source\PSoC5/SPIS_2.c **** *  No.
1045:Generated_Source\PSoC5/SPIS_2.c **** *
1046:Generated_Source\PSoC5/SPIS_2.c **** *******************************************************************************/
1047:Generated_Source\PSoC5/SPIS_2.c **** void SPIS_2_PutArray(const uint8 buffer[], uint8 byteCount)
1048:Generated_Source\PSoC5/SPIS_2.c ****                                                                     
1049:Generated_Source\PSoC5/SPIS_2.c **** {
 516              		.loc 1 1049 0
 517              		.cfi_startproc
 518              		@ args = 0, pretend = 0, frame = 0
 519              		@ frame_needed = 0, uses_anonymous_args = 0
 520              	.LVL16:
 521 0000 70B5     		push	{r4, r5, r6, lr}
 522              		.cfi_def_cfa_offset 16
 523              		.cfi_offset 4, -16
 524              		.cfi_offset 5, -12
 525              		.cfi_offset 6, -8
 526              		.cfi_offset 14, -4
 527 0002 0646     		mov	r6, r0
 528 0004 0C46     		mov	r4, r1
 529              	.LVL17:
1050:Generated_Source\PSoC5/SPIS_2.c ****     uint8 bufIndex;
1051:Generated_Source\PSoC5/SPIS_2.c ****     bufIndex = 0u;
 530              		.loc 1 1051 0
 531 0006 0025     		movs	r5, #0
1052:Generated_Source\PSoC5/SPIS_2.c **** 
1053:Generated_Source\PSoC5/SPIS_2.c ****     while(byteCount > 0u)
 532              		.loc 1 1053 0
 533 0008 06E0     		b	.L56
 534              	.LVL18:
 535              	.L57:
1054:Generated_Source\PSoC5/SPIS_2.c ****     {
1055:Generated_Source\PSoC5/SPIS_2.c ****         SPIS_2_WriteTxData(buffer[bufIndex]);
 536              		.loc 1 1055 0
 537 000a 705D     		ldrb	r0, [r6, r5]	@ zero_extendqisi2
 538 000c FFF7FEFF 		bl	SPIS_2_WriteTxData
 539              	.LVL19:
ARM GAS  C:\Users\jespe\AppData\Local\Temp\ccgNOQ6g.s 			page 29


1056:Generated_Source\PSoC5/SPIS_2.c ****         bufIndex++;
 540              		.loc 1 1056 0
 541 0010 0135     		adds	r5, r5, #1
 542              	.LVL20:
 543 0012 EDB2     		uxtb	r5, r5
 544              	.LVL21:
1057:Generated_Source\PSoC5/SPIS_2.c ****         byteCount--;
 545              		.loc 1 1057 0
 546 0014 013C     		subs	r4, r4, #1
 547              	.LVL22:
 548 0016 E4B2     		uxtb	r4, r4
 549              	.LVL23:
 550              	.L56:
1053:Generated_Source\PSoC5/SPIS_2.c ****     {
 551              		.loc 1 1053 0
 552 0018 002C     		cmp	r4, #0
 553 001a F6D1     		bne	.L57
1058:Generated_Source\PSoC5/SPIS_2.c ****     }
1059:Generated_Source\PSoC5/SPIS_2.c **** }
 554              		.loc 1 1059 0
 555 001c 70BD     		pop	{r4, r5, r6, pc}
 556              		.cfi_endproc
 557              	.LFE19:
 558              		.size	SPIS_2_PutArray, .-SPIS_2_PutArray
 559 001e 00BF     		.section	.text.SPIS_2_ClearFIFO,"ax",%progbits
 560              		.align	2
 561              		.global	SPIS_2_ClearFIFO
 562              		.thumb
 563              		.thumb_func
 564              		.type	SPIS_2_ClearFIFO, %function
 565              	SPIS_2_ClearFIFO:
 566              	.LFB20:
1060:Generated_Source\PSoC5/SPIS_2.c **** 
1061:Generated_Source\PSoC5/SPIS_2.c **** 
1062:Generated_Source\PSoC5/SPIS_2.c **** /*******************************************************************************
1063:Generated_Source\PSoC5/SPIS_2.c **** * Function Name: SPIS_2_ClearFIFO
1064:Generated_Source\PSoC5/SPIS_2.c **** ********************************************************************************
1065:Generated_Source\PSoC5/SPIS_2.c **** *
1066:Generated_Source\PSoC5/SPIS_2.c **** * Summary:
1067:Generated_Source\PSoC5/SPIS_2.c **** *  Clear the RX and TX FIFO's of all data for a fresh start.
1068:Generated_Source\PSoC5/SPIS_2.c **** *
1069:Generated_Source\PSoC5/SPIS_2.c **** * Parameters:
1070:Generated_Source\PSoC5/SPIS_2.c **** *  None.
1071:Generated_Source\PSoC5/SPIS_2.c **** *
1072:Generated_Source\PSoC5/SPIS_2.c **** * Return:
1073:Generated_Source\PSoC5/SPIS_2.c **** *  None.
1074:Generated_Source\PSoC5/SPIS_2.c **** *
1075:Generated_Source\PSoC5/SPIS_2.c **** * Side Effects:
1076:Generated_Source\PSoC5/SPIS_2.c **** *  Clear status register of the component.
1077:Generated_Source\PSoC5/SPIS_2.c **** *
1078:Generated_Source\PSoC5/SPIS_2.c **** *******************************************************************************/
1079:Generated_Source\PSoC5/SPIS_2.c **** void SPIS_2_ClearFIFO(void) 
1080:Generated_Source\PSoC5/SPIS_2.c **** {
 567              		.loc 1 1080 0
 568              		.cfi_startproc
 569              		@ args = 0, pretend = 0, frame = 0
 570              		@ frame_needed = 0, uses_anonymous_args = 0
ARM GAS  C:\Users\jespe\AppData\Local\Temp\ccgNOQ6g.s 			page 30


 571 0000 08B5     		push	{r3, lr}
 572              		.cfi_def_cfa_offset 8
 573              		.cfi_offset 3, -8
 574              		.cfi_offset 14, -4
1081:Generated_Source\PSoC5/SPIS_2.c ****     uint8 enableInterrupts;
1082:Generated_Source\PSoC5/SPIS_2.c **** 
1083:Generated_Source\PSoC5/SPIS_2.c ****     while((SPIS_2_RX_STATUS_REG & SPIS_2_STS_RX_FIFO_NOT_EMPTY) != 0u)
 575              		.loc 1 1083 0
 576 0002 01E0     		b	.L60
 577              	.L61:
1084:Generated_Source\PSoC5/SPIS_2.c ****     {
1085:Generated_Source\PSoC5/SPIS_2.c ****         CY_GET_REG8(SPIS_2_RXDATA_PTR);
 578              		.loc 1 1085 0
 579 0004 0A4B     		ldr	r3, .L63
 580 0006 1B78     		ldrb	r3, [r3]	@ zero_extendqisi2
 581              	.L60:
1083:Generated_Source\PSoC5/SPIS_2.c ****     {
 582              		.loc 1 1083 0
 583 0008 0A4B     		ldr	r3, .L63+4
 584 000a 1B78     		ldrb	r3, [r3]	@ zero_extendqisi2
 585 000c 13F0080F 		tst	r3, #8
 586 0010 F8D1     		bne	.L61
1086:Generated_Source\PSoC5/SPIS_2.c ****     }
1087:Generated_Source\PSoC5/SPIS_2.c **** 
1088:Generated_Source\PSoC5/SPIS_2.c ****     enableInterrupts = CyEnterCriticalSection();
 587              		.loc 1 1088 0
 588 0012 FFF7FEFF 		bl	CyEnterCriticalSection
 589              	.LVL24:
1089:Generated_Source\PSoC5/SPIS_2.c **** 
1090:Generated_Source\PSoC5/SPIS_2.c ****     #if(SPIS_2_DATA_WIDTH <= 8u)
1091:Generated_Source\PSoC5/SPIS_2.c **** 
1092:Generated_Source\PSoC5/SPIS_2.c ****         /* Clear TX FIFO */
1093:Generated_Source\PSoC5/SPIS_2.c ****         SPIS_2_TX_AUX_CONTROL_DP0_REG |= (uint8)SPIS_2_FIFO_CLR;
 590              		.loc 1 1093 0
 591 0016 084B     		ldr	r3, .L63+8
 592 0018 1A78     		ldrb	r2, [r3]	@ zero_extendqisi2
 593 001a 42F00302 		orr	r2, r2, #3
 594 001e 1A70     		strb	r2, [r3]
1094:Generated_Source\PSoC5/SPIS_2.c ****         SPIS_2_TX_AUX_CONTROL_DP0_REG &= (uint8)~SPIS_2_FIFO_CLR;
 595              		.loc 1 1094 0
 596 0020 1A78     		ldrb	r2, [r3]	@ zero_extendqisi2
 597 0022 02F0FC02 		and	r2, r2, #252
 598 0026 1A70     		strb	r2, [r3]
1095:Generated_Source\PSoC5/SPIS_2.c **** 
1096:Generated_Source\PSoC5/SPIS_2.c ****     #else
1097:Generated_Source\PSoC5/SPIS_2.c **** 
1098:Generated_Source\PSoC5/SPIS_2.c ****         /* Clear TX FIFO */
1099:Generated_Source\PSoC5/SPIS_2.c ****         SPIS_2_TX_AUX_CONTROL_DP0_REG |= (uint8)SPIS_2_FIFO_CLR;
1100:Generated_Source\PSoC5/SPIS_2.c ****         SPIS_2_TX_AUX_CONTROL_DP0_REG &= (uint8)~SPIS_2_FIFO_CLR;
1101:Generated_Source\PSoC5/SPIS_2.c ****         SPIS_2_TX_AUX_CONTROL_DP1_REG |= (uint8)SPIS_2_FIFO_CLR;
1102:Generated_Source\PSoC5/SPIS_2.c ****         SPIS_2_TX_AUX_CONTROL_DP1_REG &= (uint8)~SPIS_2_FIFO_CLR;
1103:Generated_Source\PSoC5/SPIS_2.c **** 
1104:Generated_Source\PSoC5/SPIS_2.c ****     #endif /* SPIS_2_DATA_WIDTH <= 8u */
1105:Generated_Source\PSoC5/SPIS_2.c **** 
1106:Generated_Source\PSoC5/SPIS_2.c ****     CyExitCriticalSection(enableInterrupts);
 599              		.loc 1 1106 0
 600 0028 FFF7FEFF 		bl	CyExitCriticalSection
ARM GAS  C:\Users\jespe\AppData\Local\Temp\ccgNOQ6g.s 			page 31


 601              	.LVL25:
 602 002c 08BD     		pop	{r3, pc}
 603              	.L64:
 604 002e 00BF     		.align	2
 605              	.L63:
 606 0030 59640040 		.word	1073767513
 607 0034 68640040 		.word	1073767528
 608 0038 99640040 		.word	1073767577
 609              		.cfi_endproc
 610              	.LFE20:
 611              		.size	SPIS_2_ClearFIFO, .-SPIS_2_ClearFIFO
 612              		.section	.text.SPIS_2_Init,"ax",%progbits
 613              		.align	2
 614              		.global	SPIS_2_Init
 615              		.thumb
 616              		.thumb_func
 617              		.type	SPIS_2_Init, %function
 618              	SPIS_2_Init:
 619              	.LFB0:
  68:Generated_Source\PSoC5/SPIS_2.c ****     /*Initialize the Bit counter */
 620              		.loc 1 68 0
 621              		.cfi_startproc
 622              		@ args = 0, pretend = 0, frame = 0
 623              		@ frame_needed = 0, uses_anonymous_args = 0
 624 0000 08B5     		push	{r3, lr}
 625              		.cfi_def_cfa_offset 8
 626              		.cfi_offset 3, -8
 627              		.cfi_offset 14, -4
  70:Generated_Source\PSoC5/SPIS_2.c **** 
 628              		.loc 1 70 0
 629 0002 0722     		movs	r2, #7
 630 0004 074B     		ldr	r3, .L67
 631 0006 1A70     		strb	r2, [r3]
  98:Generated_Source\PSoC5/SPIS_2.c **** 
 632              		.loc 1 98 0
 633 0008 FFF7FEFF 		bl	SPIS_2_ClearFIFO
 634              	.LVL26:
 112:Generated_Source\PSoC5/SPIS_2.c ****     (void) SPIS_2_ReadRxStatus(); /* Clear any pending status bits */
 635              		.loc 1 112 0
 636 000c FFF7FEFF 		bl	SPIS_2_ReadTxStatus
 637              	.LVL27:
 113:Generated_Source\PSoC5/SPIS_2.c **** 
 638              		.loc 1 113 0
 639 0010 FFF7FEFF 		bl	SPIS_2_ReadRxStatus
 640              	.LVL28:
 121:Generated_Source\PSoC5/SPIS_2.c ****     #endif /* SPIS_2_TX_SOFTWARE_BUF_ENABLED */
 641              		.loc 1 121 0
 642 0014 0022     		movs	r2, #0
 643 0016 044B     		ldr	r3, .L67+4
 644 0018 1A70     		strb	r2, [r3]
 124:Generated_Source\PSoC5/SPIS_2.c **** }
 645              		.loc 1 124 0
 646 001a 0822     		movs	r2, #8
 647 001c A3F58073 		sub	r3, r3, #256
 648 0020 1A70     		strb	r2, [r3]
 649 0022 08BD     		pop	{r3, pc}
 650              	.L68:
ARM GAS  C:\Users\jespe\AppData\Local\Temp\ccgNOQ6g.s 			page 32


 651              		.align	2
 652              	.L67:
 653 0024 89650040 		.word	1073767817
 654 0028 88650040 		.word	1073767816
 655              		.cfi_endproc
 656              	.LFE0:
 657              		.size	SPIS_2_Init, .-SPIS_2_Init
 658              		.section	.text.SPIS_2_Start,"ax",%progbits
 659              		.align	2
 660              		.global	SPIS_2_Start
 661              		.thumb
 662              		.thumb_func
 663              		.type	SPIS_2_Start, %function
 664              	SPIS_2_Start:
 665              	.LFB2:
 188:Generated_Source\PSoC5/SPIS_2.c ****     if(SPIS_2_initVar == 0u)
 666              		.loc 1 188 0
 667              		.cfi_startproc
 668              		@ args = 0, pretend = 0, frame = 0
 669              		@ frame_needed = 0, uses_anonymous_args = 0
 670 0000 08B5     		push	{r3, lr}
 671              		.cfi_def_cfa_offset 8
 672              		.cfi_offset 3, -8
 673              		.cfi_offset 14, -4
 189:Generated_Source\PSoC5/SPIS_2.c ****     {
 674              		.loc 1 189 0
 675 0002 054B     		ldr	r3, .L72
 676 0004 1B78     		ldrb	r3, [r3]	@ zero_extendqisi2
 677 0006 23B9     		cbnz	r3, .L70
 191:Generated_Source\PSoC5/SPIS_2.c ****         SPIS_2_initVar = 1u;
 678              		.loc 1 191 0
 679 0008 FFF7FEFF 		bl	SPIS_2_Init
 680              	.LVL29:
 192:Generated_Source\PSoC5/SPIS_2.c ****     }
 681              		.loc 1 192 0
 682 000c 0122     		movs	r2, #1
 683 000e 024B     		ldr	r3, .L72
 684 0010 1A70     		strb	r2, [r3]
 685              	.L70:
 195:Generated_Source\PSoC5/SPIS_2.c **** }
 686              		.loc 1 195 0
 687 0012 FFF7FEFF 		bl	SPIS_2_Enable
 688              	.LVL30:
 689 0016 08BD     		pop	{r3, pc}
 690              	.L73:
 691              		.align	2
 692              	.L72:
 693 0018 00000000 		.word	.LANCHOR0
 694              		.cfi_endproc
 695              	.LFE2:
 696              		.size	SPIS_2_Start, .-SPIS_2_Start
 697              		.section	.text.SPIS_2_EnableInt,"ax",%progbits
 698              		.align	2
 699              		.global	SPIS_2_EnableInt
 700              		.thumb
 701              		.thumb_func
 702              		.type	SPIS_2_EnableInt, %function
ARM GAS  C:\Users\jespe\AppData\Local\Temp\ccgNOQ6g.s 			page 33


 703              	SPIS_2_EnableInt:
 704              	.LFB21:
1107:Generated_Source\PSoC5/SPIS_2.c **** }
1108:Generated_Source\PSoC5/SPIS_2.c **** 
1109:Generated_Source\PSoC5/SPIS_2.c **** 
1110:Generated_Source\PSoC5/SPIS_2.c **** /* Following functions are for version Compatibility, they are obsolete.
1111:Generated_Source\PSoC5/SPIS_2.c **** *  Please do not use it in new projects.
1112:Generated_Source\PSoC5/SPIS_2.c **** */
1113:Generated_Source\PSoC5/SPIS_2.c **** 
1114:Generated_Source\PSoC5/SPIS_2.c **** 
1115:Generated_Source\PSoC5/SPIS_2.c **** /*******************************************************************************
1116:Generated_Source\PSoC5/SPIS_2.c **** * Function Name: SPIS_2_EnableInt
1117:Generated_Source\PSoC5/SPIS_2.c **** ********************************************************************************
1118:Generated_Source\PSoC5/SPIS_2.c **** *
1119:Generated_Source\PSoC5/SPIS_2.c **** * Summary:
1120:Generated_Source\PSoC5/SPIS_2.c **** *  Enable internal interrupt generation.
1121:Generated_Source\PSoC5/SPIS_2.c **** *
1122:Generated_Source\PSoC5/SPIS_2.c **** * Parameters:
1123:Generated_Source\PSoC5/SPIS_2.c **** *  None.
1124:Generated_Source\PSoC5/SPIS_2.c **** *
1125:Generated_Source\PSoC5/SPIS_2.c **** * Return:
1126:Generated_Source\PSoC5/SPIS_2.c **** *  None.
1127:Generated_Source\PSoC5/SPIS_2.c **** *
1128:Generated_Source\PSoC5/SPIS_2.c **** * Theory:
1129:Generated_Source\PSoC5/SPIS_2.c **** *  Enable the internal interrupt output -or- the interrupt component itself.
1130:Generated_Source\PSoC5/SPIS_2.c **** *
1131:Generated_Source\PSoC5/SPIS_2.c **** *******************************************************************************/
1132:Generated_Source\PSoC5/SPIS_2.c **** void SPIS_2_EnableInt(void) 
1133:Generated_Source\PSoC5/SPIS_2.c **** {
 705              		.loc 1 1133 0
 706              		.cfi_startproc
 707              		@ args = 0, pretend = 0, frame = 0
 708              		@ frame_needed = 0, uses_anonymous_args = 0
 709              		@ link register save eliminated.
 710 0000 7047     		bx	lr
 711              		.cfi_endproc
 712              	.LFE21:
 713              		.size	SPIS_2_EnableInt, .-SPIS_2_EnableInt
 714 0002 00BF     		.section	.text.SPIS_2_DisableInt,"ax",%progbits
 715              		.align	2
 716              		.global	SPIS_2_DisableInt
 717              		.thumb
 718              		.thumb_func
 719              		.type	SPIS_2_DisableInt, %function
 720              	SPIS_2_DisableInt:
 721              	.LFB22:
1134:Generated_Source\PSoC5/SPIS_2.c ****     #if(SPIS_2_INTERNAL_TX_INT_ENABLED)
1135:Generated_Source\PSoC5/SPIS_2.c ****         CyIntEnable(SPIS_2_TX_ISR_NUMBER);
1136:Generated_Source\PSoC5/SPIS_2.c ****     #endif /* SPIS_2_INTERNAL_TX_INT_ENABLED */
1137:Generated_Source\PSoC5/SPIS_2.c **** 
1138:Generated_Source\PSoC5/SPIS_2.c ****     #if(SPIS_2_INTERNAL_RX_INT_ENABLED)
1139:Generated_Source\PSoC5/SPIS_2.c ****         CyIntEnable(SPIS_2_RX_ISR_NUMBER);
1140:Generated_Source\PSoC5/SPIS_2.c ****     #endif /* SPIS_2_INTERNAL_RX_INT_ENABLED */
1141:Generated_Source\PSoC5/SPIS_2.c **** }
1142:Generated_Source\PSoC5/SPIS_2.c **** 
1143:Generated_Source\PSoC5/SPIS_2.c **** 
1144:Generated_Source\PSoC5/SPIS_2.c **** /*******************************************************************************
ARM GAS  C:\Users\jespe\AppData\Local\Temp\ccgNOQ6g.s 			page 34


1145:Generated_Source\PSoC5/SPIS_2.c **** * Function Name: SPIS_2_DisableInt
1146:Generated_Source\PSoC5/SPIS_2.c **** ********************************************************************************
1147:Generated_Source\PSoC5/SPIS_2.c **** *
1148:Generated_Source\PSoC5/SPIS_2.c **** * Summary:
1149:Generated_Source\PSoC5/SPIS_2.c **** *  Disable internal interrupt generation.
1150:Generated_Source\PSoC5/SPIS_2.c **** *
1151:Generated_Source\PSoC5/SPIS_2.c **** * Parameters:
1152:Generated_Source\PSoC5/SPIS_2.c **** *  None.
1153:Generated_Source\PSoC5/SPIS_2.c **** *
1154:Generated_Source\PSoC5/SPIS_2.c **** * Return:
1155:Generated_Source\PSoC5/SPIS_2.c **** *  None.
1156:Generated_Source\PSoC5/SPIS_2.c **** *
1157:Generated_Source\PSoC5/SPIS_2.c **** * Theory:
1158:Generated_Source\PSoC5/SPIS_2.c **** *  Disable the internal interrupt output -or- the interrupt component itself.
1159:Generated_Source\PSoC5/SPIS_2.c **** *
1160:Generated_Source\PSoC5/SPIS_2.c **** *******************************************************************************/
1161:Generated_Source\PSoC5/SPIS_2.c **** void SPIS_2_DisableInt(void) 
1162:Generated_Source\PSoC5/SPIS_2.c **** {
 722              		.loc 1 1162 0
 723              		.cfi_startproc
 724              		@ args = 0, pretend = 0, frame = 0
 725              		@ frame_needed = 0, uses_anonymous_args = 0
 726              		@ link register save eliminated.
 727 0000 7047     		bx	lr
 728              		.cfi_endproc
 729              	.LFE22:
 730              		.size	SPIS_2_DisableInt, .-SPIS_2_DisableInt
 731 0002 00BF     		.section	.text.SPIS_2_SetInterruptMode,"ax",%progbits
 732              		.align	2
 733              		.global	SPIS_2_SetInterruptMode
 734              		.thumb
 735              		.thumb_func
 736              		.type	SPIS_2_SetInterruptMode, %function
 737              	SPIS_2_SetInterruptMode:
 738              	.LFB23:
1163:Generated_Source\PSoC5/SPIS_2.c ****     #if(SPIS_2_INTERNAL_TX_INT_ENABLED)
1164:Generated_Source\PSoC5/SPIS_2.c ****         CyIntDisable(SPIS_2_TX_ISR_NUMBER);
1165:Generated_Source\PSoC5/SPIS_2.c ****     #endif /* SPIS_2_INTERNAL_TX_INT_ENABLED */
1166:Generated_Source\PSoC5/SPIS_2.c **** 
1167:Generated_Source\PSoC5/SPIS_2.c ****     #if(SPIS_2_INTERNAL_RX_INT_ENABLED)
1168:Generated_Source\PSoC5/SPIS_2.c ****         CyIntDisable(SPIS_2_RX_ISR_NUMBER);
1169:Generated_Source\PSoC5/SPIS_2.c ****     #endif /* SPIS_2_INTERNAL_RX_INT_ENABLED */
1170:Generated_Source\PSoC5/SPIS_2.c **** }
1171:Generated_Source\PSoC5/SPIS_2.c **** 
1172:Generated_Source\PSoC5/SPIS_2.c **** 
1173:Generated_Source\PSoC5/SPIS_2.c **** /*******************************************************************************
1174:Generated_Source\PSoC5/SPIS_2.c **** * Function Name: SPIS_2_SetInterruptMode
1175:Generated_Source\PSoC5/SPIS_2.c **** ********************************************************************************
1176:Generated_Source\PSoC5/SPIS_2.c **** *
1177:Generated_Source\PSoC5/SPIS_2.c **** * Summary:
1178:Generated_Source\PSoC5/SPIS_2.c **** *  Configure which status bits trigger an interrupt event.
1179:Generated_Source\PSoC5/SPIS_2.c **** *
1180:Generated_Source\PSoC5/SPIS_2.c **** * Parameters:
1181:Generated_Source\PSoC5/SPIS_2.c **** *  intSrc: An or'd combination of the desired status bit masks (defined in the
1182:Generated_Source\PSoC5/SPIS_2.c **** *  header file).
1183:Generated_Source\PSoC5/SPIS_2.c **** *
1184:Generated_Source\PSoC5/SPIS_2.c **** * Return:
ARM GAS  C:\Users\jespe\AppData\Local\Temp\ccgNOQ6g.s 			page 35


1185:Generated_Source\PSoC5/SPIS_2.c **** *  None.
1186:Generated_Source\PSoC5/SPIS_2.c **** *
1187:Generated_Source\PSoC5/SPIS_2.c **** * Theory:
1188:Generated_Source\PSoC5/SPIS_2.c **** *  Enables the output of specific status bits to the interrupt controller.
1189:Generated_Source\PSoC5/SPIS_2.c **** *
1190:Generated_Source\PSoC5/SPIS_2.c **** *******************************************************************************/
1191:Generated_Source\PSoC5/SPIS_2.c **** void SPIS_2_SetInterruptMode(uint8 intSrc) 
1192:Generated_Source\PSoC5/SPIS_2.c **** {
 739              		.loc 1 1192 0
 740              		.cfi_startproc
 741              		@ args = 0, pretend = 0, frame = 0
 742              		@ frame_needed = 0, uses_anonymous_args = 0
 743              		@ link register save eliminated.
 744              	.LVL31:
1193:Generated_Source\PSoC5/SPIS_2.c ****     SPIS_2_TX_STATUS_MASK_REG  = intSrc;
 745              		.loc 1 1193 0
 746 0000 024B     		ldr	r3, .L77
 747 0002 1870     		strb	r0, [r3]
1194:Generated_Source\PSoC5/SPIS_2.c ****     SPIS_2_RX_STATUS_MASK_REG  = intSrc;
 748              		.loc 1 1194 0
 749 0004 A3F58073 		sub	r3, r3, #256
 750 0008 1870     		strb	r0, [r3]
 751 000a 7047     		bx	lr
 752              	.L78:
 753              		.align	2
 754              	.L77:
 755 000c 88650040 		.word	1073767816
 756              		.cfi_endproc
 757              	.LFE23:
 758              		.size	SPIS_2_SetInterruptMode, .-SPIS_2_SetInterruptMode
 759              		.section	.text.SPIS_2_ReadStatus,"ax",%progbits
 760              		.align	2
 761              		.global	SPIS_2_ReadStatus
 762              		.thumb
 763              		.thumb_func
 764              		.type	SPIS_2_ReadStatus, %function
 765              	SPIS_2_ReadStatus:
 766              	.LFB24:
1195:Generated_Source\PSoC5/SPIS_2.c **** }
1196:Generated_Source\PSoC5/SPIS_2.c **** 
1197:Generated_Source\PSoC5/SPIS_2.c **** 
1198:Generated_Source\PSoC5/SPIS_2.c **** /*******************************************************************************
1199:Generated_Source\PSoC5/SPIS_2.c **** * Function Name: SPIS_2_ReadStatus
1200:Generated_Source\PSoC5/SPIS_2.c **** ********************************************************************************
1201:Generated_Source\PSoC5/SPIS_2.c **** *
1202:Generated_Source\PSoC5/SPIS_2.c **** * Summary:
1203:Generated_Source\PSoC5/SPIS_2.c **** *  Read the status register for the component.
1204:Generated_Source\PSoC5/SPIS_2.c **** *
1205:Generated_Source\PSoC5/SPIS_2.c **** * Parameters:
1206:Generated_Source\PSoC5/SPIS_2.c **** *  None.
1207:Generated_Source\PSoC5/SPIS_2.c **** *
1208:Generated_Source\PSoC5/SPIS_2.c **** * Return:
1209:Generated_Source\PSoC5/SPIS_2.c **** *  Contents of the status register.
1210:Generated_Source\PSoC5/SPIS_2.c **** *
1211:Generated_Source\PSoC5/SPIS_2.c **** * Global variables:
1212:Generated_Source\PSoC5/SPIS_2.c **** *  SPIS_2_swStatus - used to store in software status register,
1213:Generated_Source\PSoC5/SPIS_2.c **** *  modified every function call - resets to zero.
ARM GAS  C:\Users\jespe\AppData\Local\Temp\ccgNOQ6g.s 			page 36


1214:Generated_Source\PSoC5/SPIS_2.c **** *
1215:Generated_Source\PSoC5/SPIS_2.c **** * Theory:
1216:Generated_Source\PSoC5/SPIS_2.c **** *  Allows the user and the API to read the status register for error detection
1217:Generated_Source\PSoC5/SPIS_2.c **** *  and flow control.
1218:Generated_Source\PSoC5/SPIS_2.c **** *
1219:Generated_Source\PSoC5/SPIS_2.c **** * Side Effects:
1220:Generated_Source\PSoC5/SPIS_2.c **** *  Clear status register of the component.
1221:Generated_Source\PSoC5/SPIS_2.c **** *
1222:Generated_Source\PSoC5/SPIS_2.c **** * Reentrant:
1223:Generated_Source\PSoC5/SPIS_2.c **** *  No.
1224:Generated_Source\PSoC5/SPIS_2.c **** *
1225:Generated_Source\PSoC5/SPIS_2.c **** *******************************************************************************/
1226:Generated_Source\PSoC5/SPIS_2.c **** uint8 SPIS_2_ReadStatus(void) 
1227:Generated_Source\PSoC5/SPIS_2.c **** {
 767              		.loc 1 1227 0
 768              		.cfi_startproc
 769              		@ args = 0, pretend = 0, frame = 0
 770              		@ frame_needed = 0, uses_anonymous_args = 0
 771              		@ link register save eliminated.
1228:Generated_Source\PSoC5/SPIS_2.c ****     uint8 tmpStatus;
1229:Generated_Source\PSoC5/SPIS_2.c **** 
1230:Generated_Source\PSoC5/SPIS_2.c ****     #if ((SPIS_2_TX_SOFTWARE_BUF_ENABLED) || (SPIS_2_RX_SOFTWARE_BUF_ENABLED))
1231:Generated_Source\PSoC5/SPIS_2.c **** 
1232:Generated_Source\PSoC5/SPIS_2.c ****         SPIS_2_DisableInt();
1233:Generated_Source\PSoC5/SPIS_2.c **** 
1234:Generated_Source\PSoC5/SPIS_2.c ****         tmpStatus = SPIS_2_GET_STATUS_TX(SPIS_2_swStatusTx) |
1235:Generated_Source\PSoC5/SPIS_2.c ****               (SPIS_2_GET_STATUS_RX(SPIS_2_swStatusRx) & (uint8)~SPIS_2_STS_RX_FIFO_FULL);
1236:Generated_Source\PSoC5/SPIS_2.c **** 
1237:Generated_Source\PSoC5/SPIS_2.c ****         SPIS_2_swStatusTx = 0u;
1238:Generated_Source\PSoC5/SPIS_2.c ****         SPIS_2_swStatusRx = 0u;
1239:Generated_Source\PSoC5/SPIS_2.c **** 
1240:Generated_Source\PSoC5/SPIS_2.c ****         /* Enable Interrupts */
1241:Generated_Source\PSoC5/SPIS_2.c ****         SPIS_2_EnableInt();
1242:Generated_Source\PSoC5/SPIS_2.c **** 
1243:Generated_Source\PSoC5/SPIS_2.c ****     #else /* !((SPIS_2_TX_SOFTWARE_BUF_ENABLED) || (SPIS_2_RX_SOFTWARE_BUF_ENABLED)) */
1244:Generated_Source\PSoC5/SPIS_2.c **** 
1245:Generated_Source\PSoC5/SPIS_2.c ****         tmpStatus = SPIS_2_TX_STATUS_REG | (SPIS_2_RX_STATUS_REG &
 772              		.loc 1 1245 0
 773 0000 044B     		ldr	r3, .L80
 774 0002 1878     		ldrb	r0, [r3]	@ zero_extendqisi2
 775 0004 A3F58073 		sub	r3, r3, #256
 776 0008 1B78     		ldrb	r3, [r3]	@ zero_extendqisi2
 777 000a 03F0BF03 		and	r3, r3, #191
 778              	.LVL32:
1246:Generated_Source\PSoC5/SPIS_2.c ****                                                       (uint8)~SPIS_2_STS_RX_FIFO_FULL);
1247:Generated_Source\PSoC5/SPIS_2.c **** 
1248:Generated_Source\PSoC5/SPIS_2.c ****     #endif /* (SPIS_2_TX_SOFTWARE_BUF_ENABLED) || (SPIS_2_RX_SOFTWARE_BUF_ENABLED) */
1249:Generated_Source\PSoC5/SPIS_2.c **** 
1250:Generated_Source\PSoC5/SPIS_2.c ****     return(tmpStatus);
1251:Generated_Source\PSoC5/SPIS_2.c **** }
 779              		.loc 1 1251 0
 780 000e 1843     		orrs	r0, r0, r3
 781              	.LVL33:
 782 0010 7047     		bx	lr
 783              	.L81:
 784 0012 00BF     		.align	2
 785              	.L80:
ARM GAS  C:\Users\jespe\AppData\Local\Temp\ccgNOQ6g.s 			page 37


 786 0014 68650040 		.word	1073767784
 787              		.cfi_endproc
 788              	.LFE24:
 789              		.size	SPIS_2_ReadStatus, .-SPIS_2_ReadStatus
 790              		.comm	SPIS_2_swStatusRx,1,1
 791              		.comm	SPIS_2_swStatusTx,1,1
 792              		.global	SPIS_2_initVar
 793              		.bss
 794              		.set	.LANCHOR0,. + 0
 795              		.type	SPIS_2_initVar, %object
 796              		.size	SPIS_2_initVar, 1
 797              	SPIS_2_initVar:
 798 0000 00       		.space	1
 799              		.text
 800              	.Letext0:
 801              		.file 2 "Generated_Source\\PSoC5\\cytypes.h"
 802              		.file 3 "Generated_Source\\PSoC5\\CyLib.h"