ARM GAS  C:\Users\deniz\AppData\Local\Temp\ccKZoMT2.s 			page 1


   1              		.syntax unified
   2              		.cpu cortex-m3
   3              		.fpu softvfp
   4              		.eabi_attribute 20, 1
   5              		.eabi_attribute 21, 1
   6              		.eabi_attribute 23, 3
   7              		.eabi_attribute 24, 1
   8              		.eabi_attribute 25, 1
   9              		.eabi_attribute 26, 1
  10              		.eabi_attribute 30, 1
  11              		.eabi_attribute 34, 1
  12              		.eabi_attribute 18, 4
  13              		.thumb
  14              		.syntax unified
  15              		.file	"Timer.c"
  16              		.text
  17              	.Ltext0:
  18              		.cfi_sections	.debug_frame
  19              		.section	.text.startTidsTagning,"ax",%progbits
  20              		.align	2
  21              		.global	startTidsTagning
  22              		.thumb
  23              		.thumb_func
  24              		.type	startTidsTagning, %function
  25              	startTidsTagning:
  26              	.LFB64:
  27              		.file 1 "Timer.c"
   1:Timer.c       **** /* ========================================
   2:Timer.c       ****  *
   3:Timer.c       ****  * Copyright YOUR COMPANY, THE YEAR
   4:Timer.c       ****  * All Rights Reserved
   5:Timer.c       ****  * UNPUBLISHED, LICENSED SOFTWARE.
   6:Timer.c       ****  *
   7:Timer.c       ****  * CONFIDENTIAL AND PROPRIETARY INFORMATION
   8:Timer.c       ****  * WHICH IS THE PROPERTY OF your company.
   9:Timer.c       ****  *
  10:Timer.c       ****  * ========================================
  11:Timer.c       **** */
  12:Timer.c       **** #include "project.h"
  13:Timer.c       **** #include "Timer.h"
  14:Timer.c       **** #include "spi_Slave.h"
  15:Timer.c       **** #include <stdio.h>
  16:Timer.c       **** 
  17:Timer.c       **** volatile uint16 startCount = 0;
  18:Timer.c       **** volatile uint16 stopCount = 0;
  19:Timer.c       **** uint32 counter=0;
  20:Timer.c       **** 
  21:Timer.c       **** const uint32 tick_period_ms = 10;
  22:Timer.c       **** uint32 start_counter = 0;
  23:Timer.c       **** uint32 stop_counter=0;
  24:Timer.c       **** uint32 time_interval_ticks = 0;
  25:Timer.c       **** uint32 time_interval_ms=0;
  26:Timer.c       **** 
  27:Timer.c       **** 
  28:Timer.c       **** void startTidsTagning()
  29:Timer.c       **** {
  28              		.loc 1 29 0
ARM GAS  C:\Users\deniz\AppData\Local\Temp\ccKZoMT2.s 			page 2


  29              		.cfi_startproc
  30              		@ args = 0, pretend = 0, frame = 0
  31              		@ frame_needed = 0, uses_anonymous_args = 0
  32 0000 08B5     		push	{r3, lr}
  33              		.cfi_def_cfa_offset 8
  34              		.cfi_offset 3, -8
  35              		.cfi_offset 14, -4
  30:Timer.c       ****     
  31:Timer.c       ****     Timer_1_Start();
  36              		.loc 1 31 0
  37 0002 FFF7FEFF 		bl	Timer_1_Start
  38              	.LVL0:
  32:Timer.c       ****     start_counter = Timer_1_ReadCounter();
  39              		.loc 1 32 0
  40 0006 FFF7FEFF 		bl	Timer_1_ReadCounter
  41              	.LVL1:
  42 000a 014B     		ldr	r3, .L3
  43 000c 1860     		str	r0, [r3]
  44 000e 08BD     		pop	{r3, pc}
  45              	.L4:
  46              		.align	2
  47              	.L3:
  48 0010 00000000 		.word	.LANCHOR0
  49              		.cfi_endproc
  50              	.LFE64:
  51              		.size	startTidsTagning, .-startTidsTagning
  52              		.section	.text.stopTidsTagning,"ax",%progbits
  53              		.align	2
  54              		.global	stopTidsTagning
  55              		.thumb
  56              		.thumb_func
  57              		.type	stopTidsTagning, %function
  58              	stopTidsTagning:
  59              	.LFB65:
  33:Timer.c       **** }
  34:Timer.c       **** uint32 stopTidsTagning()
  35:Timer.c       **** {
  60              		.loc 1 35 0
  61              		.cfi_startproc
  62              		@ args = 0, pretend = 0, frame = 0
  63              		@ frame_needed = 0, uses_anonymous_args = 0
  64 0000 10B5     		push	{r4, lr}
  65              		.cfi_def_cfa_offset 8
  66              		.cfi_offset 4, -8
  67              		.cfi_offset 14, -4
  36:Timer.c       ****     
  37:Timer.c       ****     stop_counter = Timer_1_ReadCounter();
  68              		.loc 1 37 0
  69 0002 FFF7FEFF 		bl	Timer_1_ReadCounter
  70              	.LVL2:
  71 0006 074C     		ldr	r4, .L7
  72 0008 6060     		str	r0, [r4, #4]
  38:Timer.c       **** 
  39:Timer.c       ****     // Beregn tidsintervallet i ticks
  40:Timer.c       ****     time_interval_ticks = start_counter - stop_counter;
  73              		.loc 1 40 0
  74 000a 2368     		ldr	r3, [r4]
ARM GAS  C:\Users\deniz\AppData\Local\Temp\ccKZoMT2.s 			page 3


  75 000c 181A     		subs	r0, r3, r0
  76 000e A060     		str	r0, [r4, #8]
  41:Timer.c       **** 
  42:Timer.c       ****     // Konverter tidsintervallet til tid i millisekunder
  43:Timer.c       ****     time_interval_ms = time_interval_ticks/100;
  77              		.loc 1 43 0
  78 0010 054B     		ldr	r3, .L7+4
  79 0012 A3FB0030 		umull	r3, r0, r3, r0
  80 0016 4009     		lsrs	r0, r0, #5
  81 0018 E060     		str	r0, [r4, #12]
  44:Timer.c       **** 
  45:Timer.c       ****     Timer_1_Stop();
  82              		.loc 1 45 0
  83 001a FFF7FEFF 		bl	Timer_1_Stop
  84              	.LVL3:
  46:Timer.c       ****     
  47:Timer.c       ****     return time_interval_ms;
  48:Timer.c       **** }
  85              		.loc 1 48 0
  86 001e E068     		ldr	r0, [r4, #12]
  87 0020 10BD     		pop	{r4, pc}
  88              	.L8:
  89 0022 00BF     		.align	2
  90              	.L7:
  91 0024 00000000 		.word	.LANCHOR0
  92 0028 1F85EB51 		.word	1374389535
  93              		.cfi_endproc
  94              	.LFE65:
  95              		.size	stopTidsTagning, .-stopTidsTagning
  96              		.section	.text.convertMinutter,"ax",%progbits
  97              		.align	2
  98              		.global	convertMinutter
  99              		.thumb
 100              		.thumb_func
 101              		.type	convertMinutter, %function
 102              	convertMinutter:
 103              	.LFB66:
  49:Timer.c       **** 
  50:Timer.c       **** uint8_t convertMinutter(uint32_t time_1)
  51:Timer.c       **** {
 104              		.loc 1 51 0
 105              		.cfi_startproc
 106              		@ args = 0, pretend = 0, frame = 0
 107              		@ frame_needed = 0, uses_anonymous_args = 0
 108              		@ link register save eliminated.
 109              	.LVL4:
  52:Timer.c       ****     // Assuming time is a 32-bit integer
  53:Timer.c       ****     uint8_t minutter;
  54:Timer.c       ****     minutter = (time_1 / (1000 * 60)) & 0xFF;   // Minutter
 110              		.loc 1 54 0
 111 0000 024B     		ldr	r3, .L10
 112 0002 A3FB0030 		umull	r3, r0, r3, r0
 113              	.LVL5:
  55:Timer.c       ****     return minutter;
  56:Timer.c       **** }
 114              		.loc 1 56 0
 115 0006 C0F38730 		ubfx	r0, r0, #14, #8
ARM GAS  C:\Users\deniz\AppData\Local\Temp\ccKZoMT2.s 			page 4


 116              	.LVL6:
 117 000a 7047     		bx	lr
 118              	.L11:
 119              		.align	2
 120              	.L10:
 121 000c 73B2E745 		.word	1172812403
 122              		.cfi_endproc
 123              	.LFE66:
 124              		.size	convertMinutter, .-convertMinutter
 125              		.section	.text.convertSekunder,"ax",%progbits
 126              		.align	2
 127              		.global	convertSekunder
 128              		.thumb
 129              		.thumb_func
 130              		.type	convertSekunder, %function
 131              	convertSekunder:
 132              	.LFB67:
  57:Timer.c       **** 
  58:Timer.c       **** uint8_t convertSekunder(uint32_t time_2)
  59:Timer.c       **** {
 133              		.loc 1 59 0
 134              		.cfi_startproc
 135              		@ args = 0, pretend = 0, frame = 0
 136              		@ frame_needed = 0, uses_anonymous_args = 0
 137              		@ link register save eliminated.
 138              	.LVL7:
  60:Timer.c       ****     // Assuming time is a 32-bit integer
  61:Timer.c       ****     uint8_t sekunder;
  62:Timer.c       ****     sekunder = ((time_2 / 1000) % 60) & 0xFF;   // Sekunder
 139              		.loc 1 62 0
 140 0000 064B     		ldr	r3, .L13
 141 0002 A3FB0023 		umull	r2, r3, r3, r0
 142 0006 9B09     		lsrs	r3, r3, #6
 143 0008 0548     		ldr	r0, .L13+4
 144              	.LVL8:
 145 000a A0FB0320 		umull	r2, r0, r0, r3
 146 000e 4009     		lsrs	r0, r0, #5
 147 0010 C0EB0010 		rsb	r0, r0, r0, lsl #4
 148 0014 8200     		lsls	r2, r0, #2
 149 0016 981A     		subs	r0, r3, r2
 150              	.LVL9:
  63:Timer.c       ****     return sekunder;
  64:Timer.c       **** }
 151              		.loc 1 64 0
 152 0018 C0B2     		uxtb	r0, r0
 153 001a 7047     		bx	lr
 154              	.L14:
 155              		.align	2
 156              	.L13:
 157 001c D34D6210 		.word	274877907
 158 0020 89888888 		.word	-2004318071
 159              		.cfi_endproc
 160              	.LFE67:
 161              		.size	convertSekunder, .-convertSekunder
 162              		.section	.text.convertMillisekunder,"ax",%progbits
 163              		.align	2
 164              		.global	convertMillisekunder
ARM GAS  C:\Users\deniz\AppData\Local\Temp\ccKZoMT2.s 			page 5


 165              		.thumb
 166              		.thumb_func
 167              		.type	convertMillisekunder, %function
 168              	convertMillisekunder:
 169              	.LFB68:
  65:Timer.c       **** 
  66:Timer.c       **** uint8_t convertMillisekunder(uint32_t time_3)
  67:Timer.c       **** {
 170              		.loc 1 67 0
 171              		.cfi_startproc
 172              		@ args = 0, pretend = 0, frame = 0
 173              		@ frame_needed = 0, uses_anonymous_args = 0
 174              		@ link register save eliminated.
 175              	.LVL10:
  68:Timer.c       ****     // Assuming time is a 32-bit integer
  69:Timer.c       ****     uint8_t milliSekunder;
  70:Timer.c       ****     milliSekunder = (time_3 % 1000) & 0xFF;     // Millisekunder
 176              		.loc 1 70 0
 177 0000 044B     		ldr	r3, .L16
 178 0002 A3FB0023 		umull	r2, r3, r3, r0
 179 0006 9B09     		lsrs	r3, r3, #6
 180 0008 4FF47A72 		mov	r2, #1000
 181 000c 02FB1303 		mls	r3, r2, r3, r0
 182              	.LVL11:
  71:Timer.c       ****     return milliSekunder;
  72:Timer.c       **** }...
 183              		.loc 1 72 0
 184 0010 D8B2     		uxtb	r0, r3
 185              	.LVL12:
 186 0012 7047     		bx	lr
 187              	.L17:
 188              		.align	2
 189              	.L16:
 190 0014 D34D6210 		.word	274877907
 191              		.cfi_endproc
 192              	.LFE68:
 193              		.size	convertMillisekunder, .-convertMillisekunder
 194              		.global	time_interval_ms
 195              		.global	time_interval_ticks
 196              		.global	stop_counter
 197              		.global	start_counter
 198              		.global	tick_period_ms
 199              		.global	counter
 200              		.global	stopCount
 201              		.global	startCount
 202              		.section	.rodata
 203              		.align	2
 204              		.type	tick_period_ms, %object
 205              		.size	tick_period_ms, 4
 206              	tick_period_ms:
 207 0000 0A000000 		.word	10
 208              		.bss
 209              		.align	2
 210              		.set	.LANCHOR0,. + 0
 211              		.type	start_counter, %object
 212              		.size	start_counter, 4
 213              	start_counter:
ARM GAS  C:\Users\deniz\AppData\Local\Temp\ccKZoMT2.s 			page 6


 214 0000 00000000 		.space	4
 215              		.type	stop_counter, %object
 216              		.size	stop_counter, 4
 217              	stop_counter:
 218 0004 00000000 		.space	4
 219              		.type	time_interval_ticks, %object
 220              		.size	time_interval_ticks, 4
 221              	time_interval_ticks:
 222 0008 00000000 		.space	4
 223              		.type	time_interval_ms, %object
 224              		.size	time_interval_ms, 4
 225              	time_interval_ms:
 226 000c 00000000 		.space	4
 227              		.type	counter, %object
 228              		.size	counter, 4
 229              	counter:
 230 0010 00000000 		.space	4
 231              		.type	stopCount, %object
 232              		.size	stopCount, 2
 233              	stopCount:
 234 0014 0000     		.space	2
 235              		.type	startCount, %object
 236              		.size	startCount, 2
 237              	startCount:
 238 0016 0000     		.space	2
 239              		.text
 240              	.Letext0:
 241              		.file 2 "c:\\program files (x86)\\cypress\\psoc creator\\4.4\\psoc creator\\import\\gnu\\arm\\5.4.
 242              		.file 3 "c:\\program files (x86)\\cypress\\psoc creator\\4.4\\psoc creator\\import\\gnu\\arm\\5.4.
 243              		.file 4 "Generated_Source\\PSoC5/cytypes.h"
 244              		.file 5 "Generated_Source\\PSoC5/core_cm3.h"
 245              		.file 6 "Generated_Source\\PSoC5/Timer_1.h"