ARM GAS  C:\Users\raduf\AppData\Local\Temp\cckMHvGr.s 			page 1


   1              		.syntax unified
   2              		.cpu cortex-m3
   3              		.fpu softvfp
   4              		.eabi_attribute 20, 1
   5              		.eabi_attribute 21, 1
   6              		.eabi_attribute 23, 3
   7              		.eabi_attribute 24, 1
   8              		.eabi_attribute 25, 1
   9              		.eabi_attribute 26, 1
  10              		.eabi_attribute 30, 1
  11              		.eabi_attribute 34, 1
  12              		.eabi_attribute 18, 4
  13              		.thumb
  14              		.syntax unified
  15              		.file	"cyfitter_cfg.c"
  16              		.text
  17              	.Ltext0:
  18              		.cfi_sections	.debug_frame
  19              		.section	.text.CyClockStartupError,"ax",%progbits
  20              		.align	2
  21              		.thumb
  22              		.thumb_func
  23              		.type	CyClockStartupError, %function
  24              	CyClockStartupError:
  25              	.LFB3:
  26              		.file 1 "Generated_Source\\PSoC5\\cyfitter_cfg.c"
   1:Generated_Source\PSoC5/cyfitter_cfg.c **** 
   2:Generated_Source\PSoC5/cyfitter_cfg.c **** /*******************************************************************************
   3:Generated_Source\PSoC5/cyfitter_cfg.c **** * File Name: cyfitter_cfg.c
   4:Generated_Source\PSoC5/cyfitter_cfg.c **** * 
   5:Generated_Source\PSoC5/cyfitter_cfg.c **** * PSoC Creator  4.4
   6:Generated_Source\PSoC5/cyfitter_cfg.c **** *
   7:Generated_Source\PSoC5/cyfitter_cfg.c **** * Description:
   8:Generated_Source\PSoC5/cyfitter_cfg.c **** * This file contains device initialization code.
   9:Generated_Source\PSoC5/cyfitter_cfg.c **** * Except for the user defined sections in CyClockStartupError(), this file should not be modified.
  10:Generated_Source\PSoC5/cyfitter_cfg.c **** * This file is automatically generated by PSoC Creator.
  11:Generated_Source\PSoC5/cyfitter_cfg.c **** *
  12:Generated_Source\PSoC5/cyfitter_cfg.c **** ********************************************************************************
  13:Generated_Source\PSoC5/cyfitter_cfg.c **** * Copyright (c) 2007-2020 Cypress Semiconductor.  All rights reserved.
  14:Generated_Source\PSoC5/cyfitter_cfg.c **** * You may use this file only in accordance with the license, terms, conditions, 
  15:Generated_Source\PSoC5/cyfitter_cfg.c **** * disclaimers, and limitations in the end user license agreement accompanying 
  16:Generated_Source\PSoC5/cyfitter_cfg.c **** * the software package with which this file was provided.
  17:Generated_Source\PSoC5/cyfitter_cfg.c **** ********************************************************************************/
  18:Generated_Source\PSoC5/cyfitter_cfg.c **** 
  19:Generated_Source\PSoC5/cyfitter_cfg.c **** #include <string.h>
  20:Generated_Source\PSoC5/cyfitter_cfg.c **** #include "cytypes.h"
  21:Generated_Source\PSoC5/cyfitter_cfg.c **** #include "cydevice_trm.h"
  22:Generated_Source\PSoC5/cyfitter_cfg.c **** #include "cyfitter.h"
  23:Generated_Source\PSoC5/cyfitter_cfg.c **** #include "CyLib.h"
  24:Generated_Source\PSoC5/cyfitter_cfg.c **** #include "cyfitter_cfg.h"
  25:Generated_Source\PSoC5/cyfitter_cfg.c **** #include "cyapicallbacks.h"
  26:Generated_Source\PSoC5/cyfitter_cfg.c **** 
  27:Generated_Source\PSoC5/cyfitter_cfg.c **** #define CY_NEED_CYCLOCKSTARTUPERROR 1
  28:Generated_Source\PSoC5/cyfitter_cfg.c **** 
  29:Generated_Source\PSoC5/cyfitter_cfg.c **** 
  30:Generated_Source\PSoC5/cyfitter_cfg.c **** #if defined(__GNUC__) || defined(__ARMCC_VERSION)
  31:Generated_Source\PSoC5/cyfitter_cfg.c ****     #define CYPACKED 
ARM GAS  C:\Users\raduf\AppData\Local\Temp\cckMHvGr.s 			page 2


  32:Generated_Source\PSoC5/cyfitter_cfg.c ****     #define CYPACKED_ATTR __attribute__ ((packed))
  33:Generated_Source\PSoC5/cyfitter_cfg.c ****     #define CYALIGNED __attribute__ ((aligned))
  34:Generated_Source\PSoC5/cyfitter_cfg.c ****     #define CY_CFG_UNUSED __attribute__ ((unused))
  35:Generated_Source\PSoC5/cyfitter_cfg.c ****     #ifndef CY_CFG_SECTION
  36:Generated_Source\PSoC5/cyfitter_cfg.c ****         #define CY_CFG_SECTION __attribute__ ((section(".psocinit")))
  37:Generated_Source\PSoC5/cyfitter_cfg.c ****     #endif
  38:Generated_Source\PSoC5/cyfitter_cfg.c ****     
  39:Generated_Source\PSoC5/cyfitter_cfg.c ****     #if defined(__ARMCC_VERSION)
  40:Generated_Source\PSoC5/cyfitter_cfg.c ****         #define CY_CFG_MEMORY_BARRIER() __memory_changed()
  41:Generated_Source\PSoC5/cyfitter_cfg.c ****     #else
  42:Generated_Source\PSoC5/cyfitter_cfg.c ****         #define CY_CFG_MEMORY_BARRIER() __sync_synchronize()
  43:Generated_Source\PSoC5/cyfitter_cfg.c ****     #endif
  44:Generated_Source\PSoC5/cyfitter_cfg.c ****     
  45:Generated_Source\PSoC5/cyfitter_cfg.c **** #elif defined(__ICCARM__)
  46:Generated_Source\PSoC5/cyfitter_cfg.c ****     #include <intrinsics.h>
  47:Generated_Source\PSoC5/cyfitter_cfg.c **** 
  48:Generated_Source\PSoC5/cyfitter_cfg.c ****     #define CYPACKED __packed
  49:Generated_Source\PSoC5/cyfitter_cfg.c ****     #define CYPACKED_ATTR 
  50:Generated_Source\PSoC5/cyfitter_cfg.c ****     #define CYALIGNED _Pragma("data_alignment=4")
  51:Generated_Source\PSoC5/cyfitter_cfg.c ****     #define CY_CFG_UNUSED _Pragma("diag_suppress=Pe177")
  52:Generated_Source\PSoC5/cyfitter_cfg.c ****     #define CY_CFG_SECTION _Pragma("location=\".psocinit\"")
  53:Generated_Source\PSoC5/cyfitter_cfg.c ****     
  54:Generated_Source\PSoC5/cyfitter_cfg.c ****     #define CY_CFG_MEMORY_BARRIER() __DMB()
  55:Generated_Source\PSoC5/cyfitter_cfg.c ****     
  56:Generated_Source\PSoC5/cyfitter_cfg.c **** #else
  57:Generated_Source\PSoC5/cyfitter_cfg.c ****     #error Unsupported toolchain
  58:Generated_Source\PSoC5/cyfitter_cfg.c **** #endif
  59:Generated_Source\PSoC5/cyfitter_cfg.c **** 
  60:Generated_Source\PSoC5/cyfitter_cfg.c **** #ifndef CYCODE
  61:Generated_Source\PSoC5/cyfitter_cfg.c ****     #define CYCODE
  62:Generated_Source\PSoC5/cyfitter_cfg.c **** #endif
  63:Generated_Source\PSoC5/cyfitter_cfg.c **** #ifndef CYDATA
  64:Generated_Source\PSoC5/cyfitter_cfg.c ****     #define CYDATA
  65:Generated_Source\PSoC5/cyfitter_cfg.c **** #endif
  66:Generated_Source\PSoC5/cyfitter_cfg.c **** #ifndef CYFAR
  67:Generated_Source\PSoC5/cyfitter_cfg.c ****     #define CYFAR
  68:Generated_Source\PSoC5/cyfitter_cfg.c **** #endif
  69:Generated_Source\PSoC5/cyfitter_cfg.c **** #ifndef CYXDATA
  70:Generated_Source\PSoC5/cyfitter_cfg.c ****     #define CYXDATA
  71:Generated_Source\PSoC5/cyfitter_cfg.c **** #endif
  72:Generated_Source\PSoC5/cyfitter_cfg.c **** 
  73:Generated_Source\PSoC5/cyfitter_cfg.c **** 
  74:Generated_Source\PSoC5/cyfitter_cfg.c **** CY_CFG_UNUSED
  75:Generated_Source\PSoC5/cyfitter_cfg.c **** static void CYMEMZERO(void *s, size_t n);
  76:Generated_Source\PSoC5/cyfitter_cfg.c **** CY_CFG_UNUSED
  77:Generated_Source\PSoC5/cyfitter_cfg.c **** static void CYMEMZERO(void *s, size_t n)
  78:Generated_Source\PSoC5/cyfitter_cfg.c **** {
  79:Generated_Source\PSoC5/cyfitter_cfg.c **** 	(void)memset(s, 0, n);
  80:Generated_Source\PSoC5/cyfitter_cfg.c **** }
  81:Generated_Source\PSoC5/cyfitter_cfg.c **** CY_CFG_UNUSED
  82:Generated_Source\PSoC5/cyfitter_cfg.c **** static void CYCONFIGCPY(void *dest, const void *src, size_t n);
  83:Generated_Source\PSoC5/cyfitter_cfg.c **** CY_CFG_UNUSED
  84:Generated_Source\PSoC5/cyfitter_cfg.c **** static void CYCONFIGCPY(void *dest, const void *src, size_t n)
  85:Generated_Source\PSoC5/cyfitter_cfg.c **** {
  86:Generated_Source\PSoC5/cyfitter_cfg.c **** 	(void)memcpy(dest, src, n);
  87:Generated_Source\PSoC5/cyfitter_cfg.c **** }
  88:Generated_Source\PSoC5/cyfitter_cfg.c **** CY_CFG_UNUSED
ARM GAS  C:\Users\raduf\AppData\Local\Temp\cckMHvGr.s 			page 3


  89:Generated_Source\PSoC5/cyfitter_cfg.c **** static void CYCONFIGCPYCODE(void *dest, const void *src, size_t n);
  90:Generated_Source\PSoC5/cyfitter_cfg.c **** CY_CFG_UNUSED
  91:Generated_Source\PSoC5/cyfitter_cfg.c **** static void CYCONFIGCPYCODE(void *dest, const void *src, size_t n)
  92:Generated_Source\PSoC5/cyfitter_cfg.c **** {
  93:Generated_Source\PSoC5/cyfitter_cfg.c **** 	(void)memcpy(dest, src, n);
  94:Generated_Source\PSoC5/cyfitter_cfg.c **** }
  95:Generated_Source\PSoC5/cyfitter_cfg.c **** 
  96:Generated_Source\PSoC5/cyfitter_cfg.c **** 
  97:Generated_Source\PSoC5/cyfitter_cfg.c **** 
  98:Generated_Source\PSoC5/cyfitter_cfg.c **** 
  99:Generated_Source\PSoC5/cyfitter_cfg.c **** /* Clock startup error codes                                                   */
 100:Generated_Source\PSoC5/cyfitter_cfg.c **** #define CYCLOCKSTART_NO_ERROR    0u
 101:Generated_Source\PSoC5/cyfitter_cfg.c **** #define CYCLOCKSTART_XTAL_ERROR  1u
 102:Generated_Source\PSoC5/cyfitter_cfg.c **** #define CYCLOCKSTART_32KHZ_ERROR 2u
 103:Generated_Source\PSoC5/cyfitter_cfg.c **** #define CYCLOCKSTART_PLL_ERROR   3u
 104:Generated_Source\PSoC5/cyfitter_cfg.c **** #define CYCLOCKSTART_FLL_ERROR   4u
 105:Generated_Source\PSoC5/cyfitter_cfg.c **** #define CYCLOCKSTART_WCO_ERROR   5u
 106:Generated_Source\PSoC5/cyfitter_cfg.c **** 
 107:Generated_Source\PSoC5/cyfitter_cfg.c **** 
 108:Generated_Source\PSoC5/cyfitter_cfg.c **** #ifdef CY_NEED_CYCLOCKSTARTUPERROR
 109:Generated_Source\PSoC5/cyfitter_cfg.c **** /*******************************************************************************
 110:Generated_Source\PSoC5/cyfitter_cfg.c **** * Function Name: CyClockStartupError
 111:Generated_Source\PSoC5/cyfitter_cfg.c **** ********************************************************************************
 112:Generated_Source\PSoC5/cyfitter_cfg.c **** * Summary:
 113:Generated_Source\PSoC5/cyfitter_cfg.c **** *  If an error is encountered during clock configuration (crystal startup error,
 114:Generated_Source\PSoC5/cyfitter_cfg.c **** *  PLL lock error, etc.), the system will end up here.  Unless reimplemented by
 115:Generated_Source\PSoC5/cyfitter_cfg.c **** *  the customer, this function will stop in an infinite loop.
 116:Generated_Source\PSoC5/cyfitter_cfg.c **** *
 117:Generated_Source\PSoC5/cyfitter_cfg.c **** * Parameters:
 118:Generated_Source\PSoC5/cyfitter_cfg.c **** *   void
 119:Generated_Source\PSoC5/cyfitter_cfg.c **** *
 120:Generated_Source\PSoC5/cyfitter_cfg.c **** * Return:
 121:Generated_Source\PSoC5/cyfitter_cfg.c **** *   void
 122:Generated_Source\PSoC5/cyfitter_cfg.c **** *
 123:Generated_Source\PSoC5/cyfitter_cfg.c **** *******************************************************************************/
 124:Generated_Source\PSoC5/cyfitter_cfg.c **** CY_CFG_UNUSED
 125:Generated_Source\PSoC5/cyfitter_cfg.c **** static void CyClockStartupError(uint8 errorCode);
 126:Generated_Source\PSoC5/cyfitter_cfg.c **** CY_CFG_UNUSED
 127:Generated_Source\PSoC5/cyfitter_cfg.c **** static void CyClockStartupError(uint8 errorCode)
 128:Generated_Source\PSoC5/cyfitter_cfg.c **** {
  27              		.loc 1 128 0
  28              		.cfi_startproc
  29              		@ Volatile: function does not return.
  30              		@ args = 0, pretend = 0, frame = 0
  31              		@ frame_needed = 0, uses_anonymous_args = 0
  32              		@ link register save eliminated.
  33              	.LVL0:
  34              	.L2:
  35 0000 FEE7     		b	.L2
  36              		.cfi_endproc
  37              	.LFE3:
  38              		.size	CyClockStartupError, .-CyClockStartupError
  39 0002 00BF     		.section	.text.cfg_write_bytes32,"ax",%progbits
  40              		.align	2
  41              		.thumb
  42              		.thumb_func
  43              		.type	cfg_write_bytes32, %function
ARM GAS  C:\Users\raduf\AppData\Local\Temp\cckMHvGr.s 			page 4


  44              	cfg_write_bytes32:
  45              	.LFB4:
 129:Generated_Source\PSoC5/cyfitter_cfg.c ****     /* To remove the compiler warning if errorCode not used.                */
 130:Generated_Source\PSoC5/cyfitter_cfg.c ****     errorCode = errorCode;
 131:Generated_Source\PSoC5/cyfitter_cfg.c **** 
 132:Generated_Source\PSoC5/cyfitter_cfg.c ****     /* If we have a clock startup error (bad MHz crystal, PLL lock, etc.),  */
 133:Generated_Source\PSoC5/cyfitter_cfg.c ****     /* we will end up here to allow the customer to implement something to  */
 134:Generated_Source\PSoC5/cyfitter_cfg.c ****     /* deal with the clock condition.                                       */
 135:Generated_Source\PSoC5/cyfitter_cfg.c **** 
 136:Generated_Source\PSoC5/cyfitter_cfg.c **** #ifdef CY_CFG_CLOCK_STARTUP_ERROR_CALLBACK
 137:Generated_Source\PSoC5/cyfitter_cfg.c ****     CY_CFG_Clock_Startup_ErrorCallback();
 138:Generated_Source\PSoC5/cyfitter_cfg.c **** #else
 139:Generated_Source\PSoC5/cyfitter_cfg.c ****     /*  If not using CY_CFG_CLOCK_STARTUP_ERROR_CALLBACK, place your clock startup code here. */
 140:Generated_Source\PSoC5/cyfitter_cfg.c ****     /* `#START CyClockStartupError` */
 141:Generated_Source\PSoC5/cyfitter_cfg.c **** 
 142:Generated_Source\PSoC5/cyfitter_cfg.c **** 
 143:Generated_Source\PSoC5/cyfitter_cfg.c **** 
 144:Generated_Source\PSoC5/cyfitter_cfg.c ****     /* `#END` */
 145:Generated_Source\PSoC5/cyfitter_cfg.c **** 
 146:Generated_Source\PSoC5/cyfitter_cfg.c ****     while(1) {}
 147:Generated_Source\PSoC5/cyfitter_cfg.c **** #endif /* CY_CFG_CLOCK_STARTUP_ERROR_CALLBACK */
 148:Generated_Source\PSoC5/cyfitter_cfg.c **** }
 149:Generated_Source\PSoC5/cyfitter_cfg.c **** #endif
 150:Generated_Source\PSoC5/cyfitter_cfg.c **** 
 151:Generated_Source\PSoC5/cyfitter_cfg.c **** #define CY_CFG_BASE_ADDR_COUNT 17u
 152:Generated_Source\PSoC5/cyfitter_cfg.c **** CYPACKED typedef struct
 153:Generated_Source\PSoC5/cyfitter_cfg.c **** {
 154:Generated_Source\PSoC5/cyfitter_cfg.c **** 	uint8 offset;
 155:Generated_Source\PSoC5/cyfitter_cfg.c **** 	uint8 value;
 156:Generated_Source\PSoC5/cyfitter_cfg.c **** } CYPACKED_ATTR cy_cfg_addrvalue_t;
 157:Generated_Source\PSoC5/cyfitter_cfg.c **** 
 158:Generated_Source\PSoC5/cyfitter_cfg.c **** #define cy_cfg_addr_table ((const uint32 CYFAR *)0x48000000u)
 159:Generated_Source\PSoC5/cyfitter_cfg.c **** #define cy_cfg_data_table ((const cy_cfg_addrvalue_t CYFAR *)0x48000044u)
 160:Generated_Source\PSoC5/cyfitter_cfg.c **** 
 161:Generated_Source\PSoC5/cyfitter_cfg.c **** /* IOPINS0_8 Address: CYREG_PRT15_DM0 Size (bytes): 8 */
 162:Generated_Source\PSoC5/cyfitter_cfg.c **** #define BS_IOPINS0_8_VAL ((const uint8 CYFAR *)0x480001FCu)
 163:Generated_Source\PSoC5/cyfitter_cfg.c **** 
 164:Generated_Source\PSoC5/cyfitter_cfg.c **** /* IOPINS0_1 Address: CYREG_PRT1_DM0 Size (bytes): 8 */
 165:Generated_Source\PSoC5/cyfitter_cfg.c **** #define BS_IOPINS0_1_VAL ((const uint8 CYFAR *)0x48000204u)
 166:Generated_Source\PSoC5/cyfitter_cfg.c **** 
 167:Generated_Source\PSoC5/cyfitter_cfg.c **** /* IOPINS0_2 Address: CYREG_PRT2_DR Size (bytes): 10 */
 168:Generated_Source\PSoC5/cyfitter_cfg.c **** #define BS_IOPINS0_2_VAL ((const uint8 CYFAR *)0x4800020Cu)
 169:Generated_Source\PSoC5/cyfitter_cfg.c **** 
 170:Generated_Source\PSoC5/cyfitter_cfg.c **** 
 171:Generated_Source\PSoC5/cyfitter_cfg.c **** /*******************************************************************************
 172:Generated_Source\PSoC5/cyfitter_cfg.c **** * Function Name: cfg_write_bytes32
 173:Generated_Source\PSoC5/cyfitter_cfg.c **** ********************************************************************************
 174:Generated_Source\PSoC5/cyfitter_cfg.c **** * Summary:
 175:Generated_Source\PSoC5/cyfitter_cfg.c **** *  This function is used for setting up the chip configuration areas that
 176:Generated_Source\PSoC5/cyfitter_cfg.c **** *  contain relatively sparse data.
 177:Generated_Source\PSoC5/cyfitter_cfg.c **** *
 178:Generated_Source\PSoC5/cyfitter_cfg.c **** * Parameters:
 179:Generated_Source\PSoC5/cyfitter_cfg.c **** *   void
 180:Generated_Source\PSoC5/cyfitter_cfg.c **** *
 181:Generated_Source\PSoC5/cyfitter_cfg.c **** * Return:
 182:Generated_Source\PSoC5/cyfitter_cfg.c **** *   void
 183:Generated_Source\PSoC5/cyfitter_cfg.c **** *
ARM GAS  C:\Users\raduf\AppData\Local\Temp\cckMHvGr.s 			page 5


 184:Generated_Source\PSoC5/cyfitter_cfg.c **** *******************************************************************************/
 185:Generated_Source\PSoC5/cyfitter_cfg.c **** static void cfg_write_bytes32(const uint32 addr_table[], const cy_cfg_addrvalue_t data_table[]);
 186:Generated_Source\PSoC5/cyfitter_cfg.c **** static void cfg_write_bytes32(const uint32 addr_table[], const cy_cfg_addrvalue_t data_table[])
 187:Generated_Source\PSoC5/cyfitter_cfg.c **** {
  46              		.loc 1 187 0
  47              		.cfi_startproc
  48              		@ args = 0, pretend = 0, frame = 0
  49              		@ frame_needed = 0, uses_anonymous_args = 0
  50              		@ link register save eliminated.
  51              	.LVL1:
  52              		.loc 1 187 0
  53 0000 F0B4     		push	{r4, r5, r6, r7}
  54              		.cfi_def_cfa_offset 16
  55              		.cfi_offset 4, -16
  56              		.cfi_offset 5, -12
  57              		.cfi_offset 6, -8
  58              		.cfi_offset 7, -4
  59              	.LVL2:
 188:Generated_Source\PSoC5/cyfitter_cfg.c **** 	/* For 32-bit little-endian architectures */
 189:Generated_Source\PSoC5/cyfitter_cfg.c **** 	uint32 i, j = 0u;
  60              		.loc 1 189 0
  61 0002 0022     		movs	r2, #0
 190:Generated_Source\PSoC5/cyfitter_cfg.c **** 	for (i = 0u; i < CY_CFG_BASE_ADDR_COUNT; i++)
  62              		.loc 1 190 0
  63 0004 1746     		mov	r7, r2
  64 0006 11E0     		b	.L4
  65              	.LVL3:
  66              	.L7:
  67              	.LBB2:
 191:Generated_Source\PSoC5/cyfitter_cfg.c **** 	{
 192:Generated_Source\PSoC5/cyfitter_cfg.c **** 		uint32 baseAddr = addr_table[i];
  68              		.loc 1 192 0
  69 0008 50F82760 		ldr	r6, [r0, r7, lsl #2]
  70              	.LVL4:
 193:Generated_Source\PSoC5/cyfitter_cfg.c **** 		uint8 count = (uint8)baseAddr;
  71              		.loc 1 193 0
  72 000c F3B2     		uxtb	r3, r6
  73              	.LVL5:
 194:Generated_Source\PSoC5/cyfitter_cfg.c **** 		baseAddr &= 0xFFFFFF00u;
  74              		.loc 1 194 0
  75 000e 26F0FF06 		bic	r6, r6, #255
  76              	.LVL6:
 195:Generated_Source\PSoC5/cyfitter_cfg.c **** 		while (count != 0u)
  77              		.loc 1 195 0
  78 0012 08E0     		b	.L5
  79              	.L6:
 196:Generated_Source\PSoC5/cyfitter_cfg.c **** 		{
 197:Generated_Source\PSoC5/cyfitter_cfg.c **** 			CY_SET_REG8((void *)(baseAddr + data_table[j].offset), data_table[j].value);
  80              		.loc 1 197 0
  81 0014 01EB4205 		add	r5, r1, r2, lsl #1
  82 0018 11F81240 		ldrb	r4, [r1, r2, lsl #1]	@ zero_extendqisi2
  83 001c 6D78     		ldrb	r5, [r5, #1]	@ zero_extendqisi2
  84 001e A555     		strb	r5, [r4, r6]
 198:Generated_Source\PSoC5/cyfitter_cfg.c **** 			j++;
  85              		.loc 1 198 0
  86 0020 0132     		adds	r2, r2, #1
  87              	.LVL7:
ARM GAS  C:\Users\raduf\AppData\Local\Temp\cckMHvGr.s 			page 6


 199:Generated_Source\PSoC5/cyfitter_cfg.c **** 			count--;
  88              		.loc 1 199 0
  89 0022 013B     		subs	r3, r3, #1
  90              	.LVL8:
  91 0024 DBB2     		uxtb	r3, r3
  92              	.LVL9:
  93              	.L5:
 195:Generated_Source\PSoC5/cyfitter_cfg.c **** 		{
  94              		.loc 1 195 0
  95 0026 002B     		cmp	r3, #0
  96 0028 F4D1     		bne	.L6
  97              	.LBE2:
 190:Generated_Source\PSoC5/cyfitter_cfg.c **** 	{
  98              		.loc 1 190 0 discriminator 2
  99 002a 0137     		adds	r7, r7, #1
 100              	.LVL10:
 101              	.L4:
 190:Generated_Source\PSoC5/cyfitter_cfg.c **** 	{
 102              		.loc 1 190 0 is_stmt 0 discriminator 1
 103 002c 102F     		cmp	r7, #16
 104 002e EBD9     		bls	.L7
 200:Generated_Source\PSoC5/cyfitter_cfg.c **** 		}
 201:Generated_Source\PSoC5/cyfitter_cfg.c **** 	}
 202:Generated_Source\PSoC5/cyfitter_cfg.c **** }
 105              		.loc 1 202 0 is_stmt 1
 106 0030 F0BC     		pop	{r4, r5, r6, r7}
 107              		.cfi_restore 7
 108              		.cfi_restore 6
 109              		.cfi_restore 5
 110              		.cfi_restore 4
 111              		.cfi_def_cfa_offset 0
 112              	.LVL11:
 113 0032 7047     		bx	lr
 114              		.cfi_endproc
 115              	.LFE4:
 116              		.size	cfg_write_bytes32, .-cfg_write_bytes32
 117              		.section	.text.AnalogSetDefault,"ax",%progbits
 118              		.align	2
 119              		.thumb
 120              		.thumb_func
 121              		.type	AnalogSetDefault, %function
 122              	AnalogSetDefault:
 123              	.LFB6:
 203:Generated_Source\PSoC5/cyfitter_cfg.c **** 
 204:Generated_Source\PSoC5/cyfitter_cfg.c **** /*******************************************************************************
 205:Generated_Source\PSoC5/cyfitter_cfg.c **** * Function Name: ClockSetup
 206:Generated_Source\PSoC5/cyfitter_cfg.c **** ********************************************************************************
 207:Generated_Source\PSoC5/cyfitter_cfg.c **** *
 208:Generated_Source\PSoC5/cyfitter_cfg.c **** * Summary:
 209:Generated_Source\PSoC5/cyfitter_cfg.c **** *  Performs the initialization of all of the clocks in the device based on the
 210:Generated_Source\PSoC5/cyfitter_cfg.c **** *  settings in the Clock tab of the DWR.  This includes enabling the requested
 211:Generated_Source\PSoC5/cyfitter_cfg.c **** *  clocks and setting the necessary dividers to produce the desired frequency. 
 212:Generated_Source\PSoC5/cyfitter_cfg.c **** *
 213:Generated_Source\PSoC5/cyfitter_cfg.c **** * Parameters:
 214:Generated_Source\PSoC5/cyfitter_cfg.c **** *  void
 215:Generated_Source\PSoC5/cyfitter_cfg.c **** *
 216:Generated_Source\PSoC5/cyfitter_cfg.c **** * Return:
ARM GAS  C:\Users\raduf\AppData\Local\Temp\cckMHvGr.s 			page 7


 217:Generated_Source\PSoC5/cyfitter_cfg.c **** *  void
 218:Generated_Source\PSoC5/cyfitter_cfg.c **** *
 219:Generated_Source\PSoC5/cyfitter_cfg.c **** *******************************************************************************/
 220:Generated_Source\PSoC5/cyfitter_cfg.c **** static void ClockSetup(void);
 221:Generated_Source\PSoC5/cyfitter_cfg.c **** static void ClockSetup(void)
 222:Generated_Source\PSoC5/cyfitter_cfg.c **** {
 223:Generated_Source\PSoC5/cyfitter_cfg.c **** 	uint32 timeout;
 224:Generated_Source\PSoC5/cyfitter_cfg.c **** 	uint8 pllLock;
 225:Generated_Source\PSoC5/cyfitter_cfg.c **** 
 226:Generated_Source\PSoC5/cyfitter_cfg.c **** 
 227:Generated_Source\PSoC5/cyfitter_cfg.c **** 	/* Configure Digital Clocks based on settings from Clock DWR */
 228:Generated_Source\PSoC5/cyfitter_cfg.c **** 	CY_SET_XTND_REG16((void CYFAR *)(CYREG_CLKDIST_DCFG0_CFG0), 0x000Bu);
 229:Generated_Source\PSoC5/cyfitter_cfg.c **** 	CY_SET_XTND_REG8((void CYFAR *)(CYREG_CLKDIST_DCFG0_CFG0 + 0x2u), 0x18u);
 230:Generated_Source\PSoC5/cyfitter_cfg.c **** 
 231:Generated_Source\PSoC5/cyfitter_cfg.c **** 	/* Configure ILO based on settings from Clock DWR */
 232:Generated_Source\PSoC5/cyfitter_cfg.c **** 	CY_SET_XTND_REG8((void CYFAR *)(CYREG_SLOWCLK_ILO_CR0), 0x02u);
 233:Generated_Source\PSoC5/cyfitter_cfg.c **** 	CY_SET_XTND_REG8((void CYFAR *)(CYREG_CLKDIST_CR), 0x08u);
 234:Generated_Source\PSoC5/cyfitter_cfg.c **** 
 235:Generated_Source\PSoC5/cyfitter_cfg.c **** 	/* Configure IMO based on settings from Clock DWR */
 236:Generated_Source\PSoC5/cyfitter_cfg.c **** 	CY_SET_XTND_REG8((void CYFAR *)(CYREG_FASTCLK_IMO_CR), 0x03u);
 237:Generated_Source\PSoC5/cyfitter_cfg.c **** 	CY_SET_XTND_REG8((void CYFAR *)(CYREG_IMO_TR1), (CY_GET_XTND_REG8((void CYFAR *)CYREG_FLSHID_CUST_
 238:Generated_Source\PSoC5/cyfitter_cfg.c **** 
 239:Generated_Source\PSoC5/cyfitter_cfg.c **** 	/* Configure PLL based on settings from Clock DWR */
 240:Generated_Source\PSoC5/cyfitter_cfg.c **** 	CY_SET_XTND_REG16((void CYFAR *)(CYREG_FASTCLK_PLL_P), 0x0008u);
 241:Generated_Source\PSoC5/cyfitter_cfg.c **** 	CY_SET_XTND_REG16((void CYFAR *)(CYREG_FASTCLK_PLL_CFG0), 0x1251u);
 242:Generated_Source\PSoC5/cyfitter_cfg.c **** 	/* Wait up to 250us for the PLL to lock */
 243:Generated_Source\PSoC5/cyfitter_cfg.c **** 	pllLock = 0u;
 244:Generated_Source\PSoC5/cyfitter_cfg.c **** 	for (timeout = 250u / 10u; (timeout > 0u) && (pllLock != 0x03u); timeout--)
 245:Generated_Source\PSoC5/cyfitter_cfg.c **** 	{ 
 246:Generated_Source\PSoC5/cyfitter_cfg.c **** 		pllLock = 0x03u & ((uint8)((uint8)pllLock << 1) | ((CY_GET_XTND_REG8((void CYFAR *)CYREG_FASTCLK_
 247:Generated_Source\PSoC5/cyfitter_cfg.c **** 		CyDelayCycles(10u * 48u); /* Delay 10us based on 48MHz clock */
 248:Generated_Source\PSoC5/cyfitter_cfg.c **** 	}
 249:Generated_Source\PSoC5/cyfitter_cfg.c **** 	/* If we ran out of time the PLL didn't lock so go to the error function */
 250:Generated_Source\PSoC5/cyfitter_cfg.c **** 	if (timeout == 0u)
 251:Generated_Source\PSoC5/cyfitter_cfg.c **** 	{
 252:Generated_Source\PSoC5/cyfitter_cfg.c **** 		CyClockStartupError(CYCLOCKSTART_PLL_ERROR);
 253:Generated_Source\PSoC5/cyfitter_cfg.c **** 	}
 254:Generated_Source\PSoC5/cyfitter_cfg.c **** 
 255:Generated_Source\PSoC5/cyfitter_cfg.c **** 	/* Configure Bus/Master Clock based on settings from Clock DWR */
 256:Generated_Source\PSoC5/cyfitter_cfg.c **** 	CY_SET_XTND_REG16((void CYFAR *)(CYREG_CLKDIST_MSTR0), 0x0100u);
 257:Generated_Source\PSoC5/cyfitter_cfg.c **** 	CY_SET_XTND_REG8((void CYFAR *)(CYREG_CLKDIST_MSTR0), 0x07u);
 258:Generated_Source\PSoC5/cyfitter_cfg.c **** 	CY_SET_XTND_REG8((void CYFAR *)(CYREG_CLKDIST_BCFG0), 0x00u);
 259:Generated_Source\PSoC5/cyfitter_cfg.c **** 	CY_SET_XTND_REG8((void CYFAR *)(CYREG_CLKDIST_BCFG2), 0x48u);
 260:Generated_Source\PSoC5/cyfitter_cfg.c **** 	CY_SET_XTND_REG8((void CYFAR *)(CYREG_CLKDIST_MSTR0), 0x00u);
 261:Generated_Source\PSoC5/cyfitter_cfg.c **** 	CY_SET_XTND_REG8((void CYFAR *)(CYREG_CLKDIST_LD), 0x02u);
 262:Generated_Source\PSoC5/cyfitter_cfg.c **** 
 263:Generated_Source\PSoC5/cyfitter_cfg.c **** 	CY_SET_XTND_REG8((void CYFAR *)(CYREG_PM_ACT_CFG2), ((CY_GET_XTND_REG8((void CYFAR *)CYREG_PM_ACT_
 264:Generated_Source\PSoC5/cyfitter_cfg.c **** }
 265:Generated_Source\PSoC5/cyfitter_cfg.c **** 
 266:Generated_Source\PSoC5/cyfitter_cfg.c **** 
 267:Generated_Source\PSoC5/cyfitter_cfg.c **** /* Analog API Functions */
 268:Generated_Source\PSoC5/cyfitter_cfg.c **** 
 269:Generated_Source\PSoC5/cyfitter_cfg.c **** 
 270:Generated_Source\PSoC5/cyfitter_cfg.c **** /*******************************************************************************
 271:Generated_Source\PSoC5/cyfitter_cfg.c **** * Function Name: AnalogSetDefault
 272:Generated_Source\PSoC5/cyfitter_cfg.c **** ********************************************************************************
 273:Generated_Source\PSoC5/cyfitter_cfg.c **** *
ARM GAS  C:\Users\raduf\AppData\Local\Temp\cckMHvGr.s 			page 8


 274:Generated_Source\PSoC5/cyfitter_cfg.c **** * Summary:
 275:Generated_Source\PSoC5/cyfitter_cfg.c **** *  Sets up the analog portions of the chip to default values based on chip
 276:Generated_Source\PSoC5/cyfitter_cfg.c **** *  configuration options from the project.
 277:Generated_Source\PSoC5/cyfitter_cfg.c **** *
 278:Generated_Source\PSoC5/cyfitter_cfg.c **** * Parameters:
 279:Generated_Source\PSoC5/cyfitter_cfg.c **** *  void
 280:Generated_Source\PSoC5/cyfitter_cfg.c **** *
 281:Generated_Source\PSoC5/cyfitter_cfg.c **** * Return:
 282:Generated_Source\PSoC5/cyfitter_cfg.c **** *  void
 283:Generated_Source\PSoC5/cyfitter_cfg.c **** *
 284:Generated_Source\PSoC5/cyfitter_cfg.c **** *******************************************************************************/
 285:Generated_Source\PSoC5/cyfitter_cfg.c **** static void AnalogSetDefault(void);
 286:Generated_Source\PSoC5/cyfitter_cfg.c **** static void AnalogSetDefault(void)
 287:Generated_Source\PSoC5/cyfitter_cfg.c **** {
 124              		.loc 1 287 0
 125              		.cfi_startproc
 126              		@ args = 0, pretend = 0, frame = 0
 127              		@ frame_needed = 0, uses_anonymous_args = 0
 128              		@ link register save eliminated.
 288:Generated_Source\PSoC5/cyfitter_cfg.c **** 	uint8 bg_xover_inl_trim = CY_GET_XTND_REG8((void CYFAR *)(CYREG_FLSHID_MFG_CFG_BG_XOVER_INL_TRIM +
 129              		.loc 1 288 0
 130 0000 064B     		ldr	r3, .L10
 131 0002 1B78     		ldrb	r3, [r3]	@ zero_extendqisi2
 132 0004 DBB2     		uxtb	r3, r3
 133              	.LVL12:
 289:Generated_Source\PSoC5/cyfitter_cfg.c **** 	CY_SET_XTND_REG8((void CYFAR *)(CYREG_BG_DFT0), (bg_xover_inl_trim & 0x07u));
 134              		.loc 1 289 0
 135 0006 03F00701 		and	r1, r3, #7
 136 000a 054A     		ldr	r2, .L10+4
 137 000c 1170     		strb	r1, [r2]
 290:Generated_Source\PSoC5/cyfitter_cfg.c **** 	CY_SET_XTND_REG8((void CYFAR *)(CYREG_BG_DFT1), ((bg_xover_inl_trim >> 4) & 0x0Fu));
 138              		.loc 1 290 0
 139 000e 1B09     		lsrs	r3, r3, #4
 140              	.LVL13:
 141 0010 0132     		adds	r2, r2, #1
 142 0012 1370     		strb	r3, [r2]
 291:Generated_Source\PSoC5/cyfitter_cfg.c **** 	CY_SET_XTND_REG8((void CYFAR *)CYREG_PUMP_CR0, 0x44u);
 143              		.loc 1 291 0
 144 0014 4422     		movs	r2, #68
 145 0016 034B     		ldr	r3, .L10+8
 146 0018 1A70     		strb	r2, [r3]
 147 001a 7047     		bx	lr
 148              	.L11:
 149              		.align	2
 150              	.L10:
 151 001c CF010049 		.word	1224737231
 152 0020 6E580040 		.word	1073764462
 153 0024 76580040 		.word	1073764470
 154              		.cfi_endproc
 155              	.LFE6:
 156              		.size	AnalogSetDefault, .-AnalogSetDefault
 157              		.section	.text.CYMEMZERO,"ax",%progbits
 158              		.align	2
 159              		.thumb
 160              		.thumb_func
 161              		.type	CYMEMZERO, %function
 162              	CYMEMZERO:
ARM GAS  C:\Users\raduf\AppData\Local\Temp\cckMHvGr.s 			page 9


 163              	.LFB0:
  78:Generated_Source\PSoC5/cyfitter_cfg.c **** 	(void)memset(s, 0, n);
 164              		.loc 1 78 0
 165              		.cfi_startproc
 166              		@ args = 0, pretend = 0, frame = 0
 167              		@ frame_needed = 0, uses_anonymous_args = 0
 168              	.LVL14:
 169 0000 08B5     		push	{r3, lr}
 170              		.cfi_def_cfa_offset 8
 171              		.cfi_offset 3, -8
 172              		.cfi_offset 14, -4
  79:Generated_Source\PSoC5/cyfitter_cfg.c **** }
 173              		.loc 1 79 0
 174 0002 0A46     		mov	r2, r1
 175 0004 0021     		movs	r1, #0
 176              	.LVL15:
 177 0006 FFF7FEFF 		bl	memset
 178              	.LVL16:
 179 000a 08BD     		pop	{r3, pc}
 180              		.cfi_endproc
 181              	.LFE0:
 182              		.size	CYMEMZERO, .-CYMEMZERO
 183              		.section	.text.ClockSetup,"ax",%progbits
 184              		.align	2
 185              		.thumb
 186              		.thumb_func
 187              		.type	ClockSetup, %function
 188              	ClockSetup:
 189              	.LFB5:
 222:Generated_Source\PSoC5/cyfitter_cfg.c **** 	uint32 timeout;
 190              		.loc 1 222 0
 191              		.cfi_startproc
 192              		@ args = 0, pretend = 0, frame = 0
 193              		@ frame_needed = 0, uses_anonymous_args = 0
 194 0000 38B5     		push	{r3, r4, r5, lr}
 195              		.cfi_def_cfa_offset 16
 196              		.cfi_offset 3, -16
 197              		.cfi_offset 4, -12
 198              		.cfi_offset 5, -8
 199              		.cfi_offset 14, -4
 228:Generated_Source\PSoC5/cyfitter_cfg.c **** 	CY_SET_XTND_REG8((void CYFAR *)(CYREG_CLKDIST_DCFG0_CFG0 + 0x2u), 0x18u);
 200              		.loc 1 228 0
 201 0002 0B22     		movs	r2, #11
 202 0004 244B     		ldr	r3, .L20
 203 0006 1A80     		strh	r2, [r3]	@ movhi
 229:Generated_Source\PSoC5/cyfitter_cfg.c **** 
 204              		.loc 1 229 0
 205 0008 1822     		movs	r2, #24
 206 000a 0233     		adds	r3, r3, #2
 207 000c 1A70     		strb	r2, [r3]
 232:Generated_Source\PSoC5/cyfitter_cfg.c **** 	CY_SET_XTND_REG8((void CYFAR *)(CYREG_CLKDIST_CR), 0x08u);
 208              		.loc 1 232 0
 209 000e 0222     		movs	r2, #2
 210 0010 03F27E23 		addw	r3, r3, #638
 211 0014 1A70     		strb	r2, [r3]
 233:Generated_Source\PSoC5/cyfitter_cfg.c **** 
 212              		.loc 1 233 0
ARM GAS  C:\Users\raduf\AppData\Local\Temp\cckMHvGr.s 			page 10


 213 0016 0822     		movs	r2, #8
 214 0018 4FF04023 		mov	r3, #1073758208
 215 001c 1A70     		strb	r2, [r3]
 236:Generated_Source\PSoC5/cyfitter_cfg.c **** 	CY_SET_XTND_REG8((void CYFAR *)(CYREG_IMO_TR1), (CY_GET_XTND_REG8((void CYFAR *)CYREG_FLSHID_CUST_
 216              		.loc 1 236 0
 217 001e 0321     		movs	r1, #3
 218 0020 03F50073 		add	r3, r3, #512
 219 0024 1970     		strb	r1, [r3]
 237:Generated_Source\PSoC5/cyfitter_cfg.c **** 
 220              		.loc 1 237 0
 221 0026 1D4B     		ldr	r3, .L20+4
 222 0028 1B78     		ldrb	r3, [r3]	@ zero_extendqisi2
 223 002a DBB2     		uxtb	r3, r3
 224 002c 1C49     		ldr	r1, .L20+8
 225 002e 0B70     		strb	r3, [r1]
 240:Generated_Source\PSoC5/cyfitter_cfg.c **** 	CY_SET_XTND_REG16((void CYFAR *)(CYREG_FASTCLK_PLL_CFG0), 0x1251u);
 226              		.loc 1 240 0
 227 0030 1C4B     		ldr	r3, .L20+12
 228 0032 1A80     		strh	r2, [r3]	@ movhi
 241:Generated_Source\PSoC5/cyfitter_cfg.c **** 	/* Wait up to 250us for the PLL to lock */
 229              		.loc 1 241 0
 230 0034 41F25122 		movw	r2, #4689
 231 0038 023B     		subs	r3, r3, #2
 232 003a 1A80     		strh	r2, [r3]	@ movhi
 233              	.LVL17:
 243:Generated_Source\PSoC5/cyfitter_cfg.c **** 	for (timeout = 250u / 10u; (timeout > 0u) && (pllLock != 0x03u); timeout--)
 234              		.loc 1 243 0
 235 003c 0024     		movs	r4, #0
 244:Generated_Source\PSoC5/cyfitter_cfg.c **** 	{ 
 236              		.loc 1 244 0
 237 003e 1925     		movs	r5, #25
 238 0040 0CE0     		b	.L15
 239              	.LVL18:
 240              	.L17:
 246:Generated_Source\PSoC5/cyfitter_cfg.c **** 		CyDelayCycles(10u * 48u); /* Delay 10us based on 48MHz clock */
 241              		.loc 1 246 0 discriminator 4
 242 0042 194B     		ldr	r3, .L20+16
 243 0044 1B78     		ldrb	r3, [r3]	@ zero_extendqisi2
 244 0046 03F00103 		and	r3, r3, #1
 245 004a 43EA4404 		orr	r4, r3, r4, lsl #1
 246              	.LVL19:
 247 004e 04F00304 		and	r4, r4, #3
 248              	.LVL20:
 247:Generated_Source\PSoC5/cyfitter_cfg.c **** 	}
 249              		.loc 1 247 0 discriminator 4
 250 0052 4FF4F070 		mov	r0, #480
 251 0056 FFF7FEFF 		bl	CyDelayCycles
 252              	.LVL21:
 244:Generated_Source\PSoC5/cyfitter_cfg.c **** 	{ 
 253              		.loc 1 244 0 discriminator 4
 254 005a 013D     		subs	r5, r5, #1
 255              	.LVL22:
 256              	.L15:
 244:Generated_Source\PSoC5/cyfitter_cfg.c **** 	{ 
 257              		.loc 1 244 0 is_stmt 0 discriminator 1
 258 005c 0DB1     		cbz	r5, .L16
 244:Generated_Source\PSoC5/cyfitter_cfg.c **** 	{ 
ARM GAS  C:\Users\raduf\AppData\Local\Temp\cckMHvGr.s 			page 11


 259              		.loc 1 244 0 discriminator 3
 260 005e 032C     		cmp	r4, #3
 261 0060 EFD1     		bne	.L17
 262              	.L16:
 250:Generated_Source\PSoC5/cyfitter_cfg.c **** 	{
 263              		.loc 1 250 0 is_stmt 1
 264 0062 15B9     		cbnz	r5, .L18
 252:Generated_Source\PSoC5/cyfitter_cfg.c **** 	}
 265              		.loc 1 252 0
 266 0064 0320     		movs	r0, #3
 267 0066 FFF7FEFF 		bl	CyClockStartupError
 268              	.LVL23:
 269              	.L18:
 256:Generated_Source\PSoC5/cyfitter_cfg.c **** 	CY_SET_XTND_REG8((void CYFAR *)(CYREG_CLKDIST_MSTR0), 0x07u);
 270              		.loc 1 256 0
 271 006a 104B     		ldr	r3, .L20+20
 272 006c 4FF48072 		mov	r2, #256
 273 0070 1A80     		strh	r2, [r3]	@ movhi
 257:Generated_Source\PSoC5/cyfitter_cfg.c **** 	CY_SET_XTND_REG8((void CYFAR *)(CYREG_CLKDIST_BCFG0), 0x00u);
 274              		.loc 1 257 0
 275 0072 0722     		movs	r2, #7
 276 0074 1A70     		strb	r2, [r3]
 258:Generated_Source\PSoC5/cyfitter_cfg.c **** 	CY_SET_XTND_REG8((void CYFAR *)(CYREG_CLKDIST_BCFG2), 0x48u);
 277              		.loc 1 258 0
 278 0076 0022     		movs	r2, #0
 279 0078 0D49     		ldr	r1, .L20+24
 280 007a 0A70     		strb	r2, [r1]
 259:Generated_Source\PSoC5/cyfitter_cfg.c **** 	CY_SET_XTND_REG8((void CYFAR *)(CYREG_CLKDIST_MSTR0), 0x00u);
 281              		.loc 1 259 0
 282 007c 4820     		movs	r0, #72
 283 007e 0231     		adds	r1, r1, #2
 284 0080 0870     		strb	r0, [r1]
 260:Generated_Source\PSoC5/cyfitter_cfg.c **** 	CY_SET_XTND_REG8((void CYFAR *)(CYREG_CLKDIST_LD), 0x02u);
 285              		.loc 1 260 0
 286 0082 1A70     		strb	r2, [r3]
 261:Generated_Source\PSoC5/cyfitter_cfg.c **** 
 287              		.loc 1 261 0
 288 0084 0222     		movs	r2, #2
 289 0086 033B     		subs	r3, r3, #3
 290 0088 1A70     		strb	r2, [r3]
 263:Generated_Source\PSoC5/cyfitter_cfg.c **** }
 291              		.loc 1 263 0
 292 008a 0A4A     		ldr	r2, .L20+28
 293 008c 1378     		ldrb	r3, [r2]	@ zero_extendqisi2
 294 008e 43F00103 		orr	r3, r3, #1
 295 0092 1370     		strb	r3, [r2]
 296 0094 38BD     		pop	{r3, r4, r5, pc}
 297              	.LVL24:
 298              	.L21:
 299 0096 00BF     		.align	2
 300              	.L20:
 301 0098 80400040 		.word	1073758336
 302 009c 08010049 		.word	1224737032
 303 00a0 A1460040 		.word	1073759905
 304 00a4 22420040 		.word	1073758754
 305 00a8 25420040 		.word	1073758757
 306 00ac 04400040 		.word	1073758212
ARM GAS  C:\Users\raduf\AppData\Local\Temp\cckMHvGr.s 			page 12


 307 00b0 06400040 		.word	1073758214
 308 00b4 A2430040 		.word	1073759138
 309              		.cfi_endproc
 310              	.LFE5:
 311              		.size	ClockSetup, .-ClockSetup
 312              		.section	.text.CYCONFIGCPY,"ax",%progbits
 313              		.align	2
 314              		.thumb
 315              		.thumb_func
 316              		.type	CYCONFIGCPY, %function
 317              	CYCONFIGCPY:
 318              	.LFB1:
  85:Generated_Source\PSoC5/cyfitter_cfg.c **** 	(void)memcpy(dest, src, n);
 319              		.loc 1 85 0
 320              		.cfi_startproc
 321              		@ args = 0, pretend = 0, frame = 0
 322              		@ frame_needed = 0, uses_anonymous_args = 0
 323              	.LVL25:
 324 0000 08B5     		push	{r3, lr}
 325              		.cfi_def_cfa_offset 8
 326              		.cfi_offset 3, -8
 327              		.cfi_offset 14, -4
  86:Generated_Source\PSoC5/cyfitter_cfg.c **** }
 328              		.loc 1 86 0
 329 0002 FFF7FEFF 		bl	memcpy
 330              	.LVL26:
 331 0006 08BD     		pop	{r3, pc}
 332              		.cfi_endproc
 333              	.LFE1:
 334              		.size	CYCONFIGCPY, .-CYCONFIGCPY
 335              		.section	.text.SetAnalogRoutingPumps,"ax",%progbits
 336              		.align	2
 337              		.global	SetAnalogRoutingPumps
 338              		.thumb
 339              		.thumb_func
 340              		.type	SetAnalogRoutingPumps, %function
 341              	SetAnalogRoutingPumps:
 342              	.LFB7:
 292:Generated_Source\PSoC5/cyfitter_cfg.c **** }
 293:Generated_Source\PSoC5/cyfitter_cfg.c **** 
 294:Generated_Source\PSoC5/cyfitter_cfg.c **** 
 295:Generated_Source\PSoC5/cyfitter_cfg.c **** /*******************************************************************************
 296:Generated_Source\PSoC5/cyfitter_cfg.c **** * Function Name: SetAnalogRoutingPumps
 297:Generated_Source\PSoC5/cyfitter_cfg.c **** ********************************************************************************
 298:Generated_Source\PSoC5/cyfitter_cfg.c **** *
 299:Generated_Source\PSoC5/cyfitter_cfg.c **** * Summary:
 300:Generated_Source\PSoC5/cyfitter_cfg.c **** * Enables or disables the analog pumps feeding analog routing switches.
 301:Generated_Source\PSoC5/cyfitter_cfg.c **** * Intended to be called at startup, based on the Vdda system configuration;
 302:Generated_Source\PSoC5/cyfitter_cfg.c **** * may be called during operation when the user informs us that the Vdda voltage
 303:Generated_Source\PSoC5/cyfitter_cfg.c **** * crossed the pump threshold.
 304:Generated_Source\PSoC5/cyfitter_cfg.c **** *
 305:Generated_Source\PSoC5/cyfitter_cfg.c **** * Parameters:
 306:Generated_Source\PSoC5/cyfitter_cfg.c **** *  enabled - 1 to enable the pumps, 0 to disable the pumps
 307:Generated_Source\PSoC5/cyfitter_cfg.c **** *
 308:Generated_Source\PSoC5/cyfitter_cfg.c **** * Return:
 309:Generated_Source\PSoC5/cyfitter_cfg.c **** *  void
 310:Generated_Source\PSoC5/cyfitter_cfg.c **** *
ARM GAS  C:\Users\raduf\AppData\Local\Temp\cckMHvGr.s 			page 13


 311:Generated_Source\PSoC5/cyfitter_cfg.c **** *******************************************************************************/
 312:Generated_Source\PSoC5/cyfitter_cfg.c **** void SetAnalogRoutingPumps(uint8 enabled)
 313:Generated_Source\PSoC5/cyfitter_cfg.c **** {
 343              		.loc 1 313 0
 344              		.cfi_startproc
 345              		@ args = 0, pretend = 0, frame = 0
 346              		@ frame_needed = 0, uses_anonymous_args = 0
 347              		@ link register save eliminated.
 348              	.LVL27:
 314:Generated_Source\PSoC5/cyfitter_cfg.c **** 	uint8 regValue = CY_GET_XTND_REG8((void CYFAR *)CYREG_PUMP_CR0);
 349              		.loc 1 314 0
 350 0000 024A     		ldr	r2, .L25
 351 0002 1378     		ldrb	r3, [r2]	@ zero_extendqisi2
 352 0004 DBB2     		uxtb	r3, r3
 353              	.LVL28:
 315:Generated_Source\PSoC5/cyfitter_cfg.c **** 	if (enabled != 0u)
 316:Generated_Source\PSoC5/cyfitter_cfg.c **** 	{
 317:Generated_Source\PSoC5/cyfitter_cfg.c **** 		regValue |= 0x00u;
 318:Generated_Source\PSoC5/cyfitter_cfg.c **** 	}
 319:Generated_Source\PSoC5/cyfitter_cfg.c **** 	else
 320:Generated_Source\PSoC5/cyfitter_cfg.c **** 	{
 321:Generated_Source\PSoC5/cyfitter_cfg.c **** 		regValue &= (uint8)~0x00u;
 322:Generated_Source\PSoC5/cyfitter_cfg.c **** 	}
 323:Generated_Source\PSoC5/cyfitter_cfg.c **** 	CY_SET_XTND_REG8((void CYFAR *)CYREG_PUMP_CR0, regValue);
 354              		.loc 1 323 0
 355 0006 1370     		strb	r3, [r2]
 356 0008 7047     		bx	lr
 357              	.L26:
 358 000a 00BF     		.align	2
 359              	.L25:
 360 000c 76580040 		.word	1073764470
 361              		.cfi_endproc
 362              	.LFE7:
 363              		.size	SetAnalogRoutingPumps, .-SetAnalogRoutingPumps
 364              		.section	.text.cyfitter_cfg,"ax",%progbits
 365              		.align	2
 366              		.global	cyfitter_cfg
 367              		.thumb
 368              		.thumb_func
 369              		.type	cyfitter_cfg, %function
 370              	cyfitter_cfg:
 371              	.LFB8:
 324:Generated_Source\PSoC5/cyfitter_cfg.c **** }
 325:Generated_Source\PSoC5/cyfitter_cfg.c **** 
 326:Generated_Source\PSoC5/cyfitter_cfg.c **** 
 327:Generated_Source\PSoC5/cyfitter_cfg.c **** 
 328:Generated_Source\PSoC5/cyfitter_cfg.c **** 
 329:Generated_Source\PSoC5/cyfitter_cfg.c **** /*******************************************************************************
 330:Generated_Source\PSoC5/cyfitter_cfg.c **** * Function Name: cyfitter_cfg
 331:Generated_Source\PSoC5/cyfitter_cfg.c **** ********************************************************************************
 332:Generated_Source\PSoC5/cyfitter_cfg.c **** * Summary:
 333:Generated_Source\PSoC5/cyfitter_cfg.c **** *  This function is called by the start-up code for the selected device. It
 334:Generated_Source\PSoC5/cyfitter_cfg.c **** *  performs all of the necessary device configuration based on the design
 335:Generated_Source\PSoC5/cyfitter_cfg.c **** *  settings.  This includes settings from the Design Wide Resources (DWR) such
 336:Generated_Source\PSoC5/cyfitter_cfg.c **** *  as Clocks and Pins as well as any component configuration that is necessary.
 337:Generated_Source\PSoC5/cyfitter_cfg.c **** *
 338:Generated_Source\PSoC5/cyfitter_cfg.c **** * Parameters:
ARM GAS  C:\Users\raduf\AppData\Local\Temp\cckMHvGr.s 			page 14


 339:Generated_Source\PSoC5/cyfitter_cfg.c **** *   void
 340:Generated_Source\PSoC5/cyfitter_cfg.c **** *
 341:Generated_Source\PSoC5/cyfitter_cfg.c **** * Return:
 342:Generated_Source\PSoC5/cyfitter_cfg.c **** *   void
 343:Generated_Source\PSoC5/cyfitter_cfg.c **** *
 344:Generated_Source\PSoC5/cyfitter_cfg.c **** *******************************************************************************/
 345:Generated_Source\PSoC5/cyfitter_cfg.c **** 
 346:Generated_Source\PSoC5/cyfitter_cfg.c **** void cyfitter_cfg(void)
 347:Generated_Source\PSoC5/cyfitter_cfg.c **** {
 372              		.loc 1 347 0
 373              		.cfi_startproc
 374              		@ args = 0, pretend = 0, frame = 0
 375              		@ frame_needed = 0, uses_anonymous_args = 0
 376 0000 38B5     		push	{r3, r4, r5, lr}
 377              		.cfi_def_cfa_offset 16
 378              		.cfi_offset 3, -16
 379              		.cfi_offset 4, -12
 380              		.cfi_offset 5, -8
 381              		.cfi_offset 14, -4
 348:Generated_Source\PSoC5/cyfitter_cfg.c **** #ifdef CYGlobalIntDisable
 349:Generated_Source\PSoC5/cyfitter_cfg.c **** 	/* Disable interrupts by default. Let user enable if/when they want. */
 350:Generated_Source\PSoC5/cyfitter_cfg.c **** 	CYGlobalIntDisable
 382              		.loc 1 350 0
 383              		.syntax unified
 384              	@ 350 "Generated_Source\PSoC5\cyfitter_cfg.c" 1
 385 0002 72B6     		CPSID   i
 386              	@ 0 "" 2
 351:Generated_Source\PSoC5/cyfitter_cfg.c **** #endif
 352:Generated_Source\PSoC5/cyfitter_cfg.c **** 
 353:Generated_Source\PSoC5/cyfitter_cfg.c **** 	/* Enable/Disable Debug functionality based on settings from System DWR */
 354:Generated_Source\PSoC5/cyfitter_cfg.c **** 	CY_SET_XTND_REG8((void CYFAR *)CYREG_MLOGIC_DEBUG, (CY_GET_XTND_REG8((void CYFAR *)CYREG_MLOGIC_DE
 387              		.loc 1 354 0
 388              		.thumb
 389              		.syntax unified
 390 0004 2C4A     		ldr	r2, .L31
 391 0006 1378     		ldrb	r3, [r2]	@ zero_extendqisi2
 392 0008 43F00403 		orr	r3, r3, #4
 393 000c 1370     		strb	r3, [r2]
 394              	.LVL29:
 395              	.LBB3:
 355:Generated_Source\PSoC5/cyfitter_cfg.c **** 
 356:Generated_Source\PSoC5/cyfitter_cfg.c **** 	{
 357:Generated_Source\PSoC5/cyfitter_cfg.c **** 
 358:Generated_Source\PSoC5/cyfitter_cfg.c **** 		CYPACKED typedef struct {
 359:Generated_Source\PSoC5/cyfitter_cfg.c **** 			void CYFAR *address;
 360:Generated_Source\PSoC5/cyfitter_cfg.c **** 			uint16 size;
 361:Generated_Source\PSoC5/cyfitter_cfg.c **** 		} CYPACKED_ATTR cfg_memset_t;
 362:Generated_Source\PSoC5/cyfitter_cfg.c **** 
 363:Generated_Source\PSoC5/cyfitter_cfg.c **** 		static const cfg_memset_t CYCODE cfg_memset_list[] = {
 364:Generated_Source\PSoC5/cyfitter_cfg.c **** 			/* address, size */
 365:Generated_Source\PSoC5/cyfitter_cfg.c **** 			{(void CYFAR *)(CYREG_PRT0_DR), 16u},
 366:Generated_Source\PSoC5/cyfitter_cfg.c **** 			{(void CYFAR *)(CYREG_PRT3_DR), 64u},
 367:Generated_Source\PSoC5/cyfitter_cfg.c **** 			{(void CYFAR *)(CYREG_PRT12_DR), 16u},
 368:Generated_Source\PSoC5/cyfitter_cfg.c **** 			{(void CYFAR *)(CYDEV_UCFG_B0_P0_U0_BASE), 4096u},
 369:Generated_Source\PSoC5/cyfitter_cfg.c **** 			{(void CYFAR *)(CYDEV_UCFG_B1_P2_U0_BASE), 2048u},
 370:Generated_Source\PSoC5/cyfitter_cfg.c **** 			{(void CYFAR *)(CYDEV_UCFG_DSI0_BASE), 2560u},
 371:Generated_Source\PSoC5/cyfitter_cfg.c **** 			{(void CYFAR *)(CYDEV_UCFG_DSI12_BASE), 512u},
ARM GAS  C:\Users\raduf\AppData\Local\Temp\cckMHvGr.s 			page 15


 372:Generated_Source\PSoC5/cyfitter_cfg.c **** 			{(void CYFAR *)(CYREG_BCTL0_MDCLK_EN), 32u},
 373:Generated_Source\PSoC5/cyfitter_cfg.c **** 		};
 374:Generated_Source\PSoC5/cyfitter_cfg.c **** 
 375:Generated_Source\PSoC5/cyfitter_cfg.c **** 		uint8 CYDATA i;
 376:Generated_Source\PSoC5/cyfitter_cfg.c **** 
 377:Generated_Source\PSoC5/cyfitter_cfg.c **** 		/* Zero out critical memory blocks before beginning configuration */
 378:Generated_Source\PSoC5/cyfitter_cfg.c **** 		for (i = 0u; i < (sizeof(cfg_memset_list)/sizeof(cfg_memset_list[0])); i++)
 396              		.loc 1 378 0
 397 000e 0024     		movs	r4, #0
 398 0010 0CE0     		b	.L28
 399              	.LVL30:
 400              	.L29:
 401              	.LBB4:
 379:Generated_Source\PSoC5/cyfitter_cfg.c **** 		{
 380:Generated_Source\PSoC5/cyfitter_cfg.c **** 			const cfg_memset_t CYCODE * CYDATA ms = &cfg_memset_list[i];
 381:Generated_Source\PSoC5/cyfitter_cfg.c **** 			CYMEMZERO(ms->address, (size_t)(uint32)(ms->size));
 402              		.loc 1 381 0 discriminator 3
 403 0012 2A4D     		ldr	r5, .L31+4
 404 0014 6300     		lsls	r3, r4, #1
 405 0016 1919     		adds	r1, r3, r4
 406 0018 4A00     		lsls	r2, r1, #1
 407 001a 1146     		mov	r1, r2
 408 001c 2A44     		add	r2, r2, r5
 409 001e 0846     		mov	r0, r1
 410 0020 9188     		ldrh	r1, [r2, #4]
 411 0022 2858     		ldr	r0, [r5, r0]	@ unaligned
 412 0024 FFF7FEFF 		bl	CYMEMZERO
 413              	.LVL31:
 414              	.LBE4:
 378:Generated_Source\PSoC5/cyfitter_cfg.c **** 		{
 415              		.loc 1 378 0 discriminator 3
 416 0028 0134     		adds	r4, r4, #1
 417              	.LVL32:
 418 002a E4B2     		uxtb	r4, r4
 419              	.LVL33:
 420              	.L28:
 378:Generated_Source\PSoC5/cyfitter_cfg.c **** 		{
 421              		.loc 1 378 0 is_stmt 0 discriminator 1
 422 002c 072C     		cmp	r4, #7
 423 002e F0D9     		bls	.L29
 382:Generated_Source\PSoC5/cyfitter_cfg.c **** 		}
 383:Generated_Source\PSoC5/cyfitter_cfg.c **** 
 384:Generated_Source\PSoC5/cyfitter_cfg.c **** 		cfg_write_bytes32(cy_cfg_addr_table, cy_cfg_data_table);
 424              		.loc 1 384 0 is_stmt 1
 425 0030 2349     		ldr	r1, .L31+8
 426 0032 4FF09040 		mov	r0, #1207959552
 427 0036 FFF7FEFF 		bl	cfg_write_bytes32
 428              	.LVL34:
 385:Generated_Source\PSoC5/cyfitter_cfg.c **** 
 386:Generated_Source\PSoC5/cyfitter_cfg.c **** 		/* B0_P5_U1_CFG24 Starting address: CYDEV_UCFG_B0_P5_U1_CFG24 */
 387:Generated_Source\PSoC5/cyfitter_cfg.c **** 		CY_SET_XTND_REG32((void CYFAR *)(CYREG_B0_P5_U1_CFG24), 0x64000004u);
 429              		.loc 1 387 0
 430 003a 224A     		ldr	r2, .L31+12
 431 003c 224B     		ldr	r3, .L31+16
 432 003e 1A60     		str	r2, [r3]
 388:Generated_Source\PSoC5/cyfitter_cfg.c **** 
 389:Generated_Source\PSoC5/cyfitter_cfg.c **** 		/* Enable digital routing */
ARM GAS  C:\Users\raduf\AppData\Local\Temp\cckMHvGr.s 			page 16


 390:Generated_Source\PSoC5/cyfitter_cfg.c **** 		CY_SET_XTND_REG8((void CYFAR *)CYREG_BCTL0_BANK_CTL, CY_GET_XTND_REG8((void CYFAR *)CYREG_BCTL0_B
 433              		.loc 1 390 0
 434 0040 224A     		ldr	r2, .L31+20
 435 0042 1378     		ldrb	r3, [r2]	@ zero_extendqisi2
 436 0044 43F00203 		orr	r3, r3, #2
 437 0048 1370     		strb	r3, [r2]
 391:Generated_Source\PSoC5/cyfitter_cfg.c **** 		CY_SET_XTND_REG8((void CYFAR *)CYREG_BCTL1_BANK_CTL, CY_GET_XTND_REG8((void CYFAR *)CYREG_BCTL1_B
 438              		.loc 1 391 0
 439 004a 1032     		adds	r2, r2, #16
 440 004c 1378     		ldrb	r3, [r2]	@ zero_extendqisi2
 441 004e 43F00203 		orr	r3, r3, #2
 442 0052 1370     		strb	r3, [r2]
 392:Generated_Source\PSoC5/cyfitter_cfg.c **** 
 393:Generated_Source\PSoC5/cyfitter_cfg.c **** 		/* Enable UDB array */
 394:Generated_Source\PSoC5/cyfitter_cfg.c **** 		CY_SET_XTND_REG8((void CYFAR *)CYREG_PM_ACT_CFG0, CY_GET_XTND_REG8((void CYFAR *)CYREG_PM_ACT_CFG
 443              		.loc 1 394 0
 444 0054 1E4C     		ldr	r4, .L31+24
 445              	.LVL35:
 446 0056 2378     		ldrb	r3, [r4]	@ zero_extendqisi2
 447 0058 43F04003 		orr	r3, r3, #64
 448 005c 2370     		strb	r3, [r4]
 395:Generated_Source\PSoC5/cyfitter_cfg.c **** 		CY_SET_XTND_REG8((void CYFAR *)CYREG_PM_AVAIL_CR2, CY_GET_XTND_REG8((void CYFAR *)CYREG_PM_AVAIL_
 449              		.loc 1 395 0
 450 005e A2F58632 		sub	r2, r2, #68608
 451 0062 513A     		subs	r2, r2, #81
 452 0064 1378     		ldrb	r3, [r2]	@ zero_extendqisi2
 453 0066 43F01003 		orr	r3, r3, #16
 454 006a 1370     		strb	r3, [r2]
 455              	.LBE3:
 396:Generated_Source\PSoC5/cyfitter_cfg.c **** 	}
 397:Generated_Source\PSoC5/cyfitter_cfg.c **** 
 398:Generated_Source\PSoC5/cyfitter_cfg.c **** 
 399:Generated_Source\PSoC5/cyfitter_cfg.c **** 	/* Perform second pass device configuration. These items must be configured in specific order afte
 400:Generated_Source\PSoC5/cyfitter_cfg.c **** 	CYCONFIGCPY((void CYFAR *)(CYREG_PRT15_DM0), (const void CYFAR *)(BS_IOPINS0_8_VAL), 8u);
 456              		.loc 1 400 0
 457 006c 0822     		movs	r2, #8
 458 006e 1949     		ldr	r1, .L31+28
 459 0070 1948     		ldr	r0, .L31+32
 460 0072 FFF7FEFF 		bl	CYCONFIGCPY
 461              	.LVL36:
 401:Generated_Source\PSoC5/cyfitter_cfg.c **** 	CYCONFIGCPY((void CYFAR *)(CYREG_PRT1_DM0), (const void CYFAR *)(BS_IOPINS0_1_VAL), 8u);
 462              		.loc 1 401 0
 463 0076 0822     		movs	r2, #8
 464 0078 1849     		ldr	r1, .L31+36
 465 007a 1948     		ldr	r0, .L31+40
 466 007c FFF7FEFF 		bl	CYCONFIGCPY
 467              	.LVL37:
 402:Generated_Source\PSoC5/cyfitter_cfg.c **** 	CYCONFIGCPY((void CYFAR *)(CYREG_PRT2_DR), (const void CYFAR *)(BS_IOPINS0_2_VAL), 10u);
 468              		.loc 1 402 0
 469 0080 0A22     		movs	r2, #10
 470 0082 1849     		ldr	r1, .L31+44
 471 0084 1848     		ldr	r0, .L31+48
 472 0086 FFF7FEFF 		bl	CYCONFIGCPY
 473              	.LVL38:
 403:Generated_Source\PSoC5/cyfitter_cfg.c **** 	/* Switch Boost to the precision bandgap reference from its internal reference */
 404:Generated_Source\PSoC5/cyfitter_cfg.c **** 	CY_SET_REG8((void CYXDATA *)CYREG_BOOST_CR2, (CY_GET_REG8((void CYXDATA *)CYREG_BOOST_CR2) | 0x08u
 474              		.loc 1 404 0
ARM GAS  C:\Users\raduf\AppData\Local\Temp\cckMHvGr.s 			page 17


 475 008a 184A     		ldr	r2, .L31+52
 476 008c 1378     		ldrb	r3, [r2]	@ zero_extendqisi2
 477 008e 43F00803 		orr	r3, r3, #8
 478 0092 1370     		strb	r3, [r2]
 405:Generated_Source\PSoC5/cyfitter_cfg.c **** 
 406:Generated_Source\PSoC5/cyfitter_cfg.c **** 	/* Set Flash Cycles based on max possible frequency in case a glitch occurs during ClockSetup(). *
 407:Generated_Source\PSoC5/cyfitter_cfg.c **** 	CY_SET_XTND_REG8((void CYFAR *)(CYREG_CACHE_CC_CTL), (((CYDEV_INSTRUCT_CACHE_ENABLED) != 0) ? 0x61
 479              		.loc 1 407 0
 480 0094 164D     		ldr	r5, .L31+56
 481 0096 6123     		movs	r3, #97
 482 0098 2B70     		strb	r3, [r5]
 408:Generated_Source\PSoC5/cyfitter_cfg.c **** 	/* Setup clocks based on selections from Clock DWR */
 409:Generated_Source\PSoC5/cyfitter_cfg.c **** 	ClockSetup();
 483              		.loc 1 409 0
 484 009a FFF7FEFF 		bl	ClockSetup
 485              	.LVL39:
 410:Generated_Source\PSoC5/cyfitter_cfg.c **** 	/* Set Flash Cycles based on newly configured 24.00MHz Bus Clock. */
 411:Generated_Source\PSoC5/cyfitter_cfg.c **** 	CY_SET_XTND_REG8((void CYFAR *)(CYREG_CACHE_CC_CTL), (((CYDEV_INSTRUCT_CACHE_ENABLED) != 0) ? 0x81
 486              		.loc 1 411 0
 487 009e 8123     		movs	r3, #129
 488 00a0 2B70     		strb	r3, [r5]
 412:Generated_Source\PSoC5/cyfitter_cfg.c **** 	CY_SET_XTND_REG8((void CYFAR *)(CYREG_PANTHER_WAITPIPE), 0x01u);
 489              		.loc 1 412 0
 490 00a2 0122     		movs	r2, #1
 491 00a4 134B     		ldr	r3, .L31+60
 492 00a6 1A70     		strb	r2, [r3]
 413:Generated_Source\PSoC5/cyfitter_cfg.c **** 
 414:Generated_Source\PSoC5/cyfitter_cfg.c **** 	/* Perform basic analog initialization to defaults */
 415:Generated_Source\PSoC5/cyfitter_cfg.c **** 	AnalogSetDefault();
 493              		.loc 1 415 0
 494 00a8 FFF7FEFF 		bl	AnalogSetDefault
 495              	.LVL40:
 416:Generated_Source\PSoC5/cyfitter_cfg.c **** 
 417:Generated_Source\PSoC5/cyfitter_cfg.c **** 	/* Configure alternate active mode */
 418:Generated_Source\PSoC5/cyfitter_cfg.c **** 	CYCONFIGCPY((void CYFAR *)CYDEV_PM_STBY_BASE, (const void CYFAR *)CYDEV_PM_ACT_BASE, 14u);
 496              		.loc 1 418 0
 497 00ac 0E22     		movs	r2, #14
 498 00ae 2146     		mov	r1, r4
 499 00b0 1148     		ldr	r0, .L31+64
 500 00b2 FFF7FEFF 		bl	CYCONFIGCPY
 501              	.LVL41:
 502 00b6 38BD     		pop	{r3, r4, r5, pc}
 503              	.L32:
 504              		.align	2
 505              	.L31:
 506 00b8 E8460040 		.word	1073759976
 507 00bc 00000000 		.word	.LANCHOR0
 508 00c0 44000048 		.word	1207959620
 509 00c4 04000064 		.word	1677721604
 510 00c8 D80A0140 		.word	1073810136
 511 00cc 03500140 		.word	1073827843
 512 00d0 A0430040 		.word	1073759136
 513 00d4 FC010048 		.word	1207960060
 514 00d8 F2510040 		.word	1073762802
 515 00dc 04020048 		.word	1207960068
 516 00e0 12510040 		.word	1073762578
 517 00e4 0C020048 		.word	1207960076
ARM GAS  C:\Users\raduf\AppData\Local\Temp\cckMHvGr.s 			page 18


 518 00e8 20510040 		.word	1073762592
 519 00ec 22430040 		.word	1073759010
 520 00f0 00480040 		.word	1073760256
 521 00f4 04000840 		.word	1074266116
 522 00f8 B0430040 		.word	1073759152
 523              		.cfi_endproc
 524              	.LFE8:
 525              		.size	cyfitter_cfg, .-cyfitter_cfg
 526              		.section	.rodata
 527              		.align	2
 528              		.set	.LANCHOR0,. + 0
 529              		.type	cfg_memset_list.5013, %object
 530              		.size	cfg_memset_list.5013, 48
 531              	cfg_memset_list.5013:
 532 0000 00510040 		.word	1073762560
 533 0004 1000     		.short	16
 534 0006 30510040 		.4byte	1073762608
 535 000a 4000     		.short	64
 536 000c C0510040 		.word	1073762752
 537 0010 1000     		.short	16
 538 0012 00000140 		.4byte	1073807360
 539 0016 0010     		.short	4096
 540 0018 00140140 		.word	1073812480
 541 001c 0008     		.short	2048
 542 001e 00400140 		.4byte	1073823744
 543 0022 000A     		.short	2560
 544 0024 004C0140 		.word	1073826816
 545 0028 0002     		.short	512
 546 002a 00500140 		.4byte	1073827840
 547 002e 2000     		.short	32
 548              		.text
 549              	.Letext0:
 550              		.file 2 "c:\\program files (x86)\\cypress\\psoc creator\\4.4\\psoc creator\\import\\gnu\\arm\\5.4.
 551              		.file 3 "Generated_Source\\PSoC5\\cytypes.h"
 552              		.file 4 "Generated_Source\\PSoC5\\CyLib.h"