ARM GAS  C:\Users\raduf\AppData\Local\Temp\ccO3aCxf.s 			page 1


   1              		.syntax unified
   2              		.cpu cortex-m3
   3              		.fpu softvfp
   4              		.eabi_attribute 20, 1
   5              		.eabi_attribute 21, 1
   6              		.eabi_attribute 23, 3
   7              		.eabi_attribute 24, 1
   8              		.eabi_attribute 25, 1
   9              		.eabi_attribute 26, 1
  10              		.eabi_attribute 30, 1
  11              		.eabi_attribute 34, 1
  12              		.eabi_attribute 18, 4
  13              		.thumb
  14              		.syntax unified
  15              		.file	"main.c"
  16              		.text
  17              	.Ltext0:
  18              		.cfi_sections	.debug_frame
  19              		.section	.text.convert_ms,"ax",%progbits
  20              		.align	2
  21              		.global	convert_ms
  22              		.thumb
  23              		.thumb_func
  24              		.type	convert_ms, %function
  25              	convert_ms:
  26              	.LFB64:
  27              		.file 1 "main.c"
   1:main.c        **** #include "project.h"
   2:main.c        **** 
   3:main.c        **** #include "Loadcell.h"
   4:main.c        **** #include "Timer.h"
   5:main.c        **** #include "FlagMotor.h"
   6:main.c        **** #include "led.h"
   7:main.c        **** #include "spi_Slave.h"
   8:main.c        **** 
   9:main.c        **** #include <stdio.h>
  10:main.c        **** 
  11:main.c        **** 
  12:main.c        **** CY_ISR_PROTO(ISR_SPI_rx_handler);
  13:main.c        **** void handleByteReceived(uint8_t byteReceived);
  14:main.c        **** static int UCstate=0;
  15:main.c        **** static uint8_t minutter_ = 0, sekunder_ = 0 , millisekunder_ = 0;
  16:main.c        **** uint8_t receivedData = 0;
  17:main.c        **** 
  18:main.c        **** void convert_ms(uint32_t total_ms) {
  28              		.loc 1 18 0
  29              		.cfi_startproc
  30              		@ args = 0, pretend = 0, frame = 0
  31              		@ frame_needed = 0, uses_anonymous_args = 0
  32              		@ link register save eliminated.
  33              	.LVL0:
  34 0000 10B4     		push	{r4}
  35              		.cfi_def_cfa_offset 4
  36              		.cfi_offset 4, -4
  19:main.c        ****     minutter_ = total_ms / (1000 * 60);
  37              		.loc 1 19 0
  38 0002 0D4B     		ldr	r3, .L3
ARM GAS  C:\Users\raduf\AppData\Local\Temp\ccO3aCxf.s 			page 2


  39 0004 A3FB0023 		umull	r2, r3, r3, r0
  40 0008 9B0B     		lsrs	r3, r3, #14
  41 000a 0C49     		ldr	r1, .L3+4
  42 000c 0B70     		strb	r3, [r1]
  20:main.c        ****     sekunder_ = (total_ms / 1000) % 60;
  43              		.loc 1 20 0
  44 000e 0C4A     		ldr	r2, .L3+8
  45 0010 A2FB0032 		umull	r3, r2, r2, r0
  46 0014 9209     		lsrs	r2, r2, #6
  47 0016 0B4B     		ldr	r3, .L3+12
  48 0018 A3FB0243 		umull	r4, r3, r3, r2
  49 001c 5B09     		lsrs	r3, r3, #5
  50 001e C3EB0313 		rsb	r3, r3, r3, lsl #4
  51 0022 9C00     		lsls	r4, r3, #2
  52 0024 131B     		subs	r3, r2, r4
  53 0026 4B70     		strb	r3, [r1, #1]
  21:main.c        ****     millisekunder_ = total_ms % 1000;
  54              		.loc 1 21 0
  55 0028 4FF47A73 		mov	r3, #1000
  56 002c 03FB1203 		mls	r3, r3, r2, r0
  57 0030 8B70     		strb	r3, [r1, #2]
  22:main.c        **** }
  58              		.loc 1 22 0
  59 0032 10BC     		pop	{r4}
  60              		.cfi_restore 4
  61              		.cfi_def_cfa_offset 0
  62 0034 7047     		bx	lr
  63              	.L4:
  64 0036 00BF     		.align	2
  65              	.L3:
  66 0038 73B2E745 		.word	1172812403
  67 003c 00000000 		.word	.LANCHOR0
  68 0040 D34D6210 		.word	274877907
  69 0044 89888888 		.word	-2004318071
  70              		.cfi_endproc
  71              	.LFE64:
  72              		.size	convert_ms, .-convert_ms
  73              		.global	__aeabi_f2uiz
  74              		.section	.text.main,"ax",%progbits
  75              		.align	2
  76              		.global	main
  77              		.thumb
  78              		.thumb_func
  79              		.type	main, %function
  80              	main:
  81              	.LFB65:
  23:main.c        **** 
  24:main.c        **** int main(void)
  25:main.c        **** {
  82              		.loc 1 25 0
  83              		.cfi_startproc
  84              		@ args = 0, pretend = 0, frame = 0
  85              		@ frame_needed = 0, uses_anonymous_args = 0
  86 0000 70B5     		push	{r4, r5, r6, lr}
  87              		.cfi_def_cfa_offset 16
  88              		.cfi_offset 4, -16
  89              		.cfi_offset 5, -12
ARM GAS  C:\Users\raduf\AppData\Local\Temp\ccO3aCxf.s 			page 3


  90              		.cfi_offset 6, -8
  91              		.cfi_offset 14, -4
  26:main.c        ****     CyGlobalIntEnable; /* Enable global interrupts. */
  92              		.loc 1 26 0
  93              		.syntax unified
  94              	@ 26 "main.c" 1
  95 0002 62B6     		CPSIE   i
  96              	@ 0 "" 2
  27:main.c        ****     SPI_RX_ISR_StartEx(ISR_SPI_rx_handler);
  97              		.loc 1 27 0
  98              		.thumb
  99              		.syntax unified
 100 0004 4848     		ldr	r0, .L14
 101 0006 FFF7FEFF 		bl	SPI_RX_ISR_StartEx
 102              	.LVL1:
  28:main.c        **** 
  29:main.c        ****     // Initialize SPI
  30:main.c        ****     InitializeSPI(); // Make sure this function is correctly configuring the SPI module
 103              		.loc 1 30 0
 104 000a FFF7FEFF 		bl	InitializeSPI
 105              	.LVL2:
  31:main.c        ****     
  32:main.c        ****     
  33:main.c        ****     //Initiering
  34:main.c        ****     initLoadcell();
 106              		.loc 1 34 0
 107 000e FFF7FEFF 		bl	initLoadcell
 108              	.LVL3:
  35:main.c        ****     
  36:main.c        ****     //Variable definationer
  37:main.c        ****     int repeats = 50;
  38:main.c        ****     float startoffset = 164.5;
  39:main.c        ****     float factor = 4.672;
  40:main.c        ****     int preload=0;
  41:main.c        ****     uint16_t Result_gram;
  42:main.c        ****     uint8_t gameReady=0;
  43:main.c        ****     uint8_t timestop=0;
  44:main.c        ****     uint8_t dnf=0;
  45:main.c        ****     char mode='h';
  46:main.c        ****     uint32_t tid=0;
  47:main.c        ****     
  48:main.c        ****     homeStepper(mode);
 109              		.loc 1 48 0
 110 0012 6820     		movs	r0, #104
 111 0014 FFF7FEFF 		bl	homeStepper
 112              	.LVL4:
  49:main.c        ****     stopFlagMotor();
 113              		.loc 1 49 0
 114 0018 FFF7FEFF 		bl	stopFlagMotor
 115              	.LVL5:
 116              	.L11:
  50:main.c        ****    
  51:main.c        ****     for(;;)
  52:main.c        ****     {
  53:main.c        ****            //UC1 Game preperation
  54:main.c        ****     //Øl fjernet
  55:main.c        ****     if(UCstate==1)
ARM GAS  C:\Users\raduf\AppData\Local\Temp\ccO3aCxf.s 			page 4


 117              		.loc 1 55 0
 118 001c 434B     		ldr	r3, .L14+4
 119 001e 5B68     		ldr	r3, [r3, #4]
 120 0020 012B     		cmp	r3, #1
 121 0022 18D1     		bne	.L6
  56:main.c        ****     {
  57:main.c        ****     offset_Zerodrift_calibrate( repeats,  startoffset,  factor, preload);
 122              		.loc 1 57 0
 123 0024 424D     		ldr	r5, .L14+8
 124 0026 434C     		ldr	r4, .L14+12
 125 0028 0023     		movs	r3, #0
 126 002a 2A46     		mov	r2, r5
 127 002c 2146     		mov	r1, r4
 128 002e 3220     		movs	r0, #50
 129 0030 FFF7FEFF 		bl	offset_Zerodrift_calibrate
 130              	.LVL6:
 131              	.LBB2:
  58:main.c        ****     {
  59:main.c        ****     float zerodriftOffset = readWeight( repeats,startoffset,  factor, preload);
 132              		.loc 1 59 0
 133 0034 0023     		movs	r3, #0
 134 0036 2A46     		mov	r2, r5
 135 0038 2146     		mov	r1, r4
 136 003a 3220     		movs	r0, #50
 137 003c FFF7FEFF 		bl	readWeight
 138              	.LVL7:
 139              	.LBE2:
  60:main.c        ****     //snprintf(uartBuffer,sizeof(uartBuffer),"Read value (g) %f\r\n ", zerodriftOffset);
  61:main.c        ****     //UART_1_PutString(uartBuffer);
  62:main.c        ****     }
  63:main.c        ****     sendSPi(receivedData);
 140              		.loc 1 63 0
 141 0040 3A4C     		ldr	r4, .L14+4
 142 0042 207A     		ldrb	r0, [r4, #8]	@ zero_extendqisi2
 143 0044 FFF7FEFF 		bl	sendSPi
 144              	.LVL8:
  64:main.c        ****     homeStepper(mode);
 145              		.loc 1 64 0
 146 0048 6820     		movs	r0, #104
 147 004a FFF7FEFF 		bl	homeStepper
 148              	.LVL9:
  65:main.c        ****     stopFlagMotor();
 149              		.loc 1 65 0
 150 004e FFF7FEFF 		bl	stopFlagMotor
 151              	.LVL10:
  66:main.c        ****     UCstate=0;
 152              		.loc 1 66 0
 153 0052 0023     		movs	r3, #0
 154 0054 6360     		str	r3, [r4, #4]
 155              	.L6:
  67:main.c        ****     
  68:main.c        ****     
  69:main.c        ****     }
  70:main.c        ****     
  71:main.c        ****     
  72:main.c        ****     
  73:main.c        ****     //der er sat en genstand på platform
ARM GAS  C:\Users\raduf\AppData\Local\Temp\ccO3aCxf.s 			page 5


  74:main.c        ****     if(UCstate==2)
 156              		.loc 1 74 0
 157 0056 354B     		ldr	r3, .L14+4
 158 0058 5B68     		ldr	r3, [r3, #4]
 159 005a 022B     		cmp	r3, #2
 160 005c 16D1     		bne	.L7
  75:main.c        ****     {
  76:main.c        ****     wait_for_weight(startoffset, factor,preload);//venter på der bliver plasseret en øl
 161              		.loc 1 76 0
 162 005e 344D     		ldr	r5, .L14+8
 163 0060 344C     		ldr	r4, .L14+12
 164 0062 0022     		movs	r2, #0
 165 0064 2946     		mov	r1, r5
 166 0066 2046     		mov	r0, r4
 167 0068 FFF7FEFF 		bl	wait_for_weight
 168              	.LVL11:
  77:main.c        ****     CyDelay(3000); //delay så flasken flader til ro
 169              		.loc 1 77 0
 170 006c 40F6B830 		movw	r0, #3000
 171 0070 FFF7FEFF 		bl	CyDelay
 172              	.LVL12:
  78:main.c        ****     Result_gram = readWeight( repeats,startoffset, factor, preload);
 173              		.loc 1 78 0
 174 0074 0023     		movs	r3, #0
 175 0076 2A46     		mov	r2, r5
 176 0078 2146     		mov	r1, r4
 177 007a 3220     		movs	r0, #50
 178 007c FFF7FEFF 		bl	readWeight
 179              	.LVL13:
  79:main.c        ****     {
  80:main.c        ****     
  81:main.c        ****     //snprintf(uartBuffer,sizeof(uartBuffer),"Read value (g) %d\r\n ", Result_gram);
  82:main.c        ****     //UART_1_PutString(uartBuffer);
  83:main.c        ****     
  84:main.c        ****     }
  85:main.c        ****     if(Result_gram>650)
  86:main.c        ****     gameReady=1;
  87:main.c        ****     else
  88:main.c        ****     gameReady=0;
  89:main.c        ****     
  90:main.c        ****     {
  91:main.c        ****     //snprintf(uartBuffer,sizeof(uartBuffer),"gameReady (g) %d\r\n ", gameReady);
  92:main.c        ****     //UART_1_PutString(uartBuffer);
  93:main.c        ****     }
  94:main.c        ****     sendSPi(receivedData);
 180              		.loc 1 94 0
 181 0080 2A4C     		ldr	r4, .L14+4
 182 0082 207A     		ldrb	r0, [r4, #8]	@ zero_extendqisi2
 183 0084 FFF7FEFF 		bl	sendSPi
 184              	.LVL14:
  95:main.c        ****     UCstate=0;
 185              		.loc 1 95 0
 186 0088 0023     		movs	r3, #0
 187 008a 6360     		str	r3, [r4, #4]
 188              	.L7:
  96:main.c        ****     }
  97:main.c        ****      
ARM GAS  C:\Users\raduf\AppData\Local\Temp\ccO3aCxf.s 			page 6


  98:main.c        ****     //send signal til RPI, Hvis GameReady er 1 så er øllen godkendt
  99:main.c        ****     
 100:main.c        ****     
 101:main.c        ****     
 102:main.c        ****     //UC2 play game
 103:main.c        ****     
 104:main.c        ****     //Dermodtages GO signal
 105:main.c        ****     
 106:main.c        ****     if(UCstate==3)
 189              		.loc 1 106 0
 190 008c 274B     		ldr	r3, .L14+4
 191 008e 5B68     		ldr	r3, [r3, #4]
 192 0090 032B     		cmp	r3, #3
 193 0092 37D1     		bne	.L8
 194              	.LBB3:
 107:main.c        ****     {
 108:main.c        ****     Result_gram = readWeight(repeats,startoffset, factor, preload);
 195              		.loc 1 108 0
 196 0094 0023     		movs	r3, #0
 197 0096 264A     		ldr	r2, .L14+8
 198 0098 2649     		ldr	r1, .L14+12
 199 009a 3220     		movs	r0, #50
 200 009c FFF7FEFF 		bl	readWeight
 201              	.LVL15:
 202 00a0 FFF7FEFF 		bl	__aeabi_f2uiz
 203              	.LVL16:
 204 00a4 84B2     		uxth	r4, r0
 205              	.LVL17:
 109:main.c        ****         {//print
 110:main.c        ****         //snprintf(uartBuffer,sizeof(uartBuffer),"Read value (g) %d\r\n ", Result_gram);
 111:main.c        ****         //UART_1_PutString(uartBuffer);
 112:main.c        ****         }
 113:main.c        ****     if(Result_gram<10)
 114:main.c        ****         dnf=1;
 115:main.c        ****     else
 116:main.c        ****         dnf=0;
 117:main.c        ****         {//print
 118:main.c        ****         //snprintf(uartBuffer,sizeof(uartBuffer),"Dnf (g) %d\r\n ", dnf);
 119:main.c        ****         //UART_1_PutString(uartBuffer);
 120:main.c        ****         }
 121:main.c        ****     startTidsTagning();//timer startes
 206              		.loc 1 121 0
 207 00a6 FFF7FEFF 		bl	startTidsTagning
 208              	.LVL18:
 122:main.c        ****     
 123:main.c        ****     while(Result_gram>10)
 209              		.loc 1 123 0
 210 00aa 08E0     		b	.L9
 211              	.L10:
 124:main.c        ****     Result_gram = readWeight(repeats,startoffset, factor, preload);
 212              		.loc 1 124 0
 213 00ac 0023     		movs	r3, #0
 214 00ae 204A     		ldr	r2, .L14+8
 215 00b0 2049     		ldr	r1, .L14+12
 216 00b2 3220     		movs	r0, #50
 217 00b4 FFF7FEFF 		bl	readWeight
 218              	.LVL19:
ARM GAS  C:\Users\raduf\AppData\Local\Temp\ccO3aCxf.s 			page 7


 219 00b8 FFF7FEFF 		bl	__aeabi_f2uiz
 220              	.LVL20:
 221 00bc 84B2     		uxth	r4, r0
 222              	.LVL21:
 223              	.L9:
 123:main.c        ****     Result_gram = readWeight(repeats,startoffset, factor, preload);
 224              		.loc 1 123 0
 225 00be 0A2C     		cmp	r4, #10
 226 00c0 F4D8     		bhi	.L10
 125:main.c        ****     
 126:main.c        ****     
 127:main.c        ****     wait_for_weight(startoffset, factor,preload);//venter på der bliver plasseret en øl
 227              		.loc 1 127 0
 228 00c2 1B4E     		ldr	r6, .L14+8
 229 00c4 1B4D     		ldr	r5, .L14+12
 230 00c6 0022     		movs	r2, #0
 231 00c8 3146     		mov	r1, r6
 232 00ca 2846     		mov	r0, r5
 233 00cc FFF7FEFF 		bl	wait_for_weight
 234              	.LVL22:
 128:main.c        ****     timestop=1;
 129:main.c        ****     tid = stopTidsTagning(); //tid stoppes
 235              		.loc 1 129 0
 236 00d0 FFF7FEFF 		bl	stopTidsTagning
 237              	.LVL23:
 130:main.c        ****     
 131:main.c        ****     convert_ms(tid);
 238              		.loc 1 131 0
 239 00d4 FFF7FEFF 		bl	convert_ms
 240              	.LVL24:
 132:main.c        ****     
 133:main.c        ****     //Kald funktion her
 134:main.c        ****     sendSPi(minutter_);
 241              		.loc 1 134 0
 242 00d8 144C     		ldr	r4, .L14+4
 243              	.LVL25:
 244 00da 2078     		ldrb	r0, [r4]	@ zero_extendqisi2
 245 00dc FFF7FEFF 		bl	sendSPi
 246              	.LVL26:
 135:main.c        ****     sendSPi(sekunder_);
 247              		.loc 1 135 0
 248 00e0 6078     		ldrb	r0, [r4, #1]	@ zero_extendqisi2
 249 00e2 FFF7FEFF 		bl	sendSPi
 250              	.LVL27:
 136:main.c        ****     sendSPi(millisekunder_);
 251              		.loc 1 136 0
 252 00e6 A078     		ldrb	r0, [r4, #2]	@ zero_extendqisi2
 253 00e8 FFF7FEFF 		bl	sendSPi
 254              	.LVL28:
 137:main.c        ****     
 138:main.c        ****     int roundedNum = (tid + 50) / 100 * 100;//rundes af til nærmeste 100 ms
 139:main.c        ****         {//print
 140:main.c        ****         //snprintf(uartBuffer,sizeof(uartBuffer),"tid (g) %d\r\n ", tid);
 141:main.c        ****         //UART_1_PutString(uartBuffer);
 142:main.c        ****         //snprintf(uartBuffer,sizeof(uartBuffer),"tid (g) %d\r\n ", roundedNum);
 143:main.c        ****         //UART_1_PutString(uartBuffer);
 144:main.c        ****         }
ARM GAS  C:\Users\raduf\AppData\Local\Temp\ccO3aCxf.s 			page 8


 145:main.c        ****     //tid sendes
 146:main.c        ****     CyDelay(5000);
 255              		.loc 1 146 0
 256 00ec 41F28830 		movw	r0, #5000
 257 00f0 FFF7FEFF 		bl	CyDelay
 258              	.LVL29:
 147:main.c        ****     Result_gram = readWeight(repeats,startoffset, factor, preload);
 259              		.loc 1 147 0
 260 00f4 0023     		movs	r3, #0
 261 00f6 3246     		mov	r2, r6
 262 00f8 2946     		mov	r1, r5
 263 00fa 3220     		movs	r0, #50
 264 00fc FFF7FEFF 		bl	readWeight
 265              	.LVL30:
 148:main.c        ****         {//print
 149:main.c        ****         //snprintf(uartBuffer,sizeof(uartBuffer),"Read value (g) %d\r\n ", Result_gram);
 150:main.c        ****         //UART_1_PutString(uartBuffer);
 151:main.c        ****         }
 152:main.c        ****     if(Result_gram>310)
 153:main.c        ****         dnf=1;
 154:main.c        ****     //dnf value sendes
 155:main.c        ****     
 156:main.c        ****         {//print
 157:main.c        ****         //snprintf(uartBuffer,sizeof(uartBuffer),"Dnf (g) %d\r\n ", dnf);
 158:main.c        ****         //UART_1_PutString(uartBuffer);
 159:main.c        ****         }
 160:main.c        ****     UCstate=0;
 266              		.loc 1 160 0
 267 0100 0023     		movs	r3, #0
 268 0102 6360     		str	r3, [r4, #4]
 269              	.LVL31:
 270              	.L8:
 271              	.LBE3:
 161:main.c        ****     }
 162:main.c        ****     
 163:main.c        ****     //modtager win signal fra RPI
 164:main.c        ****     if(UCstate==4)
 272              		.loc 1 164 0
 273 0104 094B     		ldr	r3, .L14+4
 274 0106 5B68     		ldr	r3, [r3, #4]
 275 0108 042B     		cmp	r3, #4
 276 010a 87D1     		bne	.L11
 165:main.c        ****     {
 166:main.c        ****     
 167:main.c        ****     stepperdriver_rotateTo(90, mode);
 277              		.loc 1 167 0
 278 010c 6821     		movs	r1, #104
 279 010e 5A20     		movs	r0, #90
 280 0110 FFF7FEFF 		bl	stepperdriver_rotateTo
 281              	.LVL32:
 168:main.c        ****     stopFlagMotor();
 282              		.loc 1 168 0
 283 0114 FFF7FEFF 		bl	stopFlagMotor
 284              	.LVL33:
 169:main.c        ****     sendSPi(receivedData);
 285              		.loc 1 169 0
 286 0118 044C     		ldr	r4, .L14+4
ARM GAS  C:\Users\raduf\AppData\Local\Temp\ccO3aCxf.s 			page 9


 287 011a 207A     		ldrb	r0, [r4, #8]	@ zero_extendqisi2
 288 011c FFF7FEFF 		bl	sendSPi
 289              	.LVL34:
 170:main.c        ****     UCstate=0;
 290              		.loc 1 170 0
 291 0120 0023     		movs	r3, #0
 292 0122 6360     		str	r3, [r4, #4]
 293 0124 7AE7     		b	.L11
 294              	.L15:
 295 0126 00BF     		.align	2
 296              	.L14:
 297 0128 00000000 		.word	ISR_SPI_rx_handler
 298 012c 00000000 		.word	.LANCHOR0
 299 0130 06819540 		.word	1083539718
 300 0134 00802443 		.word	1126465536
 301              		.cfi_endproc
 302              	.LFE65:
 303              		.size	main, .-main
 304              		.section	.text.handleByteReceived,"ax",%progbits
 305              		.align	2
 306              		.global	handleByteReceived
 307              		.thumb
 308              		.thumb_func
 309              		.type	handleByteReceived, %function
 310              	handleByteReceived:
 311              	.LFB66:
 171:main.c        ****     }
 172:main.c        ****     }
 173:main.c        ****     
 174:main.c        **** }
 175:main.c        **** 
 176:main.c        **** void handleByteReceived(uint8_t byteReceived)
 177:main.c        **** {
 312              		.loc 1 177 0
 313              		.cfi_startproc
 314              		@ args = 0, pretend = 0, frame = 0
 315              		@ frame_needed = 0, uses_anonymous_args = 0
 316              		@ link register save eliminated.
 317              	.LVL35:
 178:main.c        ****     switch(byteReceived)
 318              		.loc 1 178 0
 319 0000 BB28     		cmp	r0, #187
 320 0002 0CD0     		beq	.L18
 321 0004 02D8     		bhi	.L19
 322 0006 AA28     		cmp	r0, #170
 323 0008 05D0     		beq	.L20
 324 000a 7047     		bx	lr
 325              	.L19:
 326 000c CC28     		cmp	r0, #204
 327 000e 0AD0     		beq	.L21
 328 0010 DD28     		cmp	r0, #221
 329 0012 0CD0     		beq	.L22
 330 0014 7047     		bx	lr
 331              	.L20:
 179:main.c        ****     {
 180:main.c        ****         case 0xAA :
 181:main.c        ****         {
ARM GAS  C:\Users\raduf\AppData\Local\Temp\ccO3aCxf.s 			page 10


 182:main.c        ****             //Kalibrering af vægten samt steppermotor
 183:main.c        ****             UCstate=1;
 332              		.loc 1 183 0
 333 0016 0122     		movs	r2, #1
 334 0018 074B     		ldr	r3, .L23
 335 001a 5A60     		str	r2, [r3, #4]
 184:main.c        ****             
 185:main.c        ****         }
 186:main.c        ****         break;
 336              		.loc 1 186 0
 337 001c 7047     		bx	lr
 338              	.L18:
 187:main.c        ****         case 0xBB :
 188:main.c        ****         {
 189:main.c        ****             //Gameready - venter, læser samt tjekker på vægten
 190:main.c        ****             UCstate=2;
 339              		.loc 1 190 0
 340 001e 0222     		movs	r2, #2
 341 0020 054B     		ldr	r3, .L23
 342 0022 5A60     		str	r2, [r3, #4]
 191:main.c        ****             
 192:main.c        ****         }
 193:main.c        ****         break;
 343              		.loc 1 193 0
 344 0024 7047     		bx	lr
 345              	.L21:
 194:main.c        ****         case 0xCC :
 195:main.c        ****         {
 196:main.c        ****             //Loop for aflæsning af vægt - Venter på, at der kommer vægt på vægten / tjekker 
 197:main.c        ****             UCstate=3;
 346              		.loc 1 197 0
 347 0026 0322     		movs	r2, #3
 348 0028 034B     		ldr	r3, .L23
 349 002a 5A60     		str	r2, [r3, #4]
 198:main.c        ****         }
 199:main.c        ****         break;
 350              		.loc 1 199 0
 351 002c 7047     		bx	lr
 352              	.L22:
 200:main.c        ****         case 0xDD :
 201:main.c        ****         {
 202:main.c        ****             //Flagmotor
 203:main.c        ****             UCstate=4;
 353              		.loc 1 203 0
 354 002e 0422     		movs	r2, #4
 355 0030 014B     		ldr	r3, .L23
 356 0032 5A60     		str	r2, [r3, #4]
 357 0034 7047     		bx	lr
 358              	.L24:
 359 0036 00BF     		.align	2
 360              	.L23:
 361 0038 00000000 		.word	.LANCHOR0
 362              		.cfi_endproc
 363              	.LFE66:
 364              		.size	handleByteReceived, .-handleByteReceived
 365              		.section	.text.ISR_SPI_rx_handler,"ax",%progbits
 366              		.align	2
ARM GAS  C:\Users\raduf\AppData\Local\Temp\ccO3aCxf.s 			page 11


 367              		.global	ISR_SPI_rx_handler
 368              		.thumb
 369              		.thumb_func
 370              		.type	ISR_SPI_rx_handler, %function
 371              	ISR_SPI_rx_handler:
 372              	.LFB67:
 204:main.c        ****             
 205:main.c        ****         }
 206:main.c        ****         break;
 207:main.c        ****         default :
 208:main.c        ****         {
 209:main.c        ****             // nothing
 210:main.c        ****         }
 211:main.c        ****         break;
 212:main.c        ****     }
 213:main.c        **** }
 214:main.c        **** 
 215:main.c        **** 
 216:main.c        **** CY_ISR(ISR_SPI_rx_handler)
 217:main.c        **** {
 373              		.loc 1 217 0
 374              		.cfi_startproc
 375              		@ args = 0, pretend = 0, frame = 0
 376              		@ frame_needed = 0, uses_anonymous_args = 0
 377 0000 08B5     		push	{r3, lr}
 378              		.cfi_def_cfa_offset 8
 379              		.cfi_offset 3, -8
 380              		.cfi_offset 14, -4
 218:main.c        ****     uint8_t receivedData = modtagetSPi();
 381              		.loc 1 218 0
 382 0002 FFF7FEFF 		bl	modtagetSPi
 383              	.LVL36:
 219:main.c        ****     
 220:main.c        ****     //Handling of recieved SPI data
 221:main.c        ****     handleByteReceived(receivedData);
 384              		.loc 1 221 0
 385 0006 FFF7FEFF 		bl	handleByteReceived
 386              	.LVL37:
 387 000a 08BD     		pop	{r3, pc}
 388              		.cfi_endproc
 389              	.LFE67:
 390              		.size	ISR_SPI_rx_handler, .-ISR_SPI_rx_handler
 391              		.global	receivedData
 392              		.bss
 393              		.align	2
 394              		.set	.LANCHOR0,. + 0
 395              		.type	minutter_, %object
 396              		.size	minutter_, 1
 397              	minutter_:
 398 0000 00       		.space	1
 399              		.type	sekunder_, %object
 400              		.size	sekunder_, 1
 401              	sekunder_:
 402 0001 00       		.space	1
 403              		.type	millisekunder_, %object
 404              		.size	millisekunder_, 1
 405              	millisekunder_:
ARM GAS  C:\Users\raduf\AppData\Local\Temp\ccO3aCxf.s 			page 12


 406 0002 00       		.space	1
 407 0003 00       		.space	1
 408              		.type	UCstate, %object
 409              		.size	UCstate, 4
 410              	UCstate:
 411 0004 00000000 		.space	4
 412              		.type	receivedData, %object
 413              		.size	receivedData, 1
 414              	receivedData:
 415 0008 00       		.space	1
 416              		.text
 417              	.Letext0:
 418              		.file 2 "c:\\program files (x86)\\cypress\\psoc creator\\4.4\\psoc creator\\import\\gnu\\arm\\5.4.
 419              		.file 3 "c:\\program files (x86)\\cypress\\psoc creator\\4.4\\psoc creator\\import\\gnu\\arm\\5.4.
 420              		.file 4 "Generated_Source\\PSoC5/core_cm3.h"
 421              		.file 5 "Loadcell.h"
 422              		.file 6 "Timer.h"
 423              		.file 7 "spi_Slave.h"
 424              		.file 8 "Generated_Source\\PSoC5/CyLib.h"
 425              		.file 9 "Generated_Source\\PSoC5/SPI_RX_ISR.h"
 426              		.file 10 "FlagMotor.h"