ARM GAS  C:\Users\ZakiN\AppData\Local\Temp\cc7Waj8i.s 			page 1


   1              		.syntax unified
   2              		.cpu cortex-m3
   3              		.fpu softvfp
   4              		.eabi_attribute 20, 1
   5              		.eabi_attribute 21, 1
   6              		.eabi_attribute 23, 3
   7              		.eabi_attribute 24, 1
   8              		.eabi_attribute 25, 1
   9              		.eabi_attribute 26, 1
  10              		.eabi_attribute 30, 1
  11              		.eabi_attribute 34, 1
  12              		.eabi_attribute 18, 4
  13              		.thumb
  14              		.syntax unified
  15              		.file	"spi_Slave.c"
  16              		.text
  17              	.Ltext0:
  18              		.cfi_sections	.debug_frame
  19              		.section	.text.InitializeSPI,"ax",%progbits
  20              		.align	2
  21              		.global	InitializeSPI
  22              		.thumb
  23              		.thumb_func
  24              		.type	InitializeSPI, %function
  25              	InitializeSPI:
  26              	.LFB63:
  27              		.file 1 "spi_Slave.c"
   1:spi_Slave.c   **** /* ========================================
   2:spi_Slave.c   ****  *
   3:spi_Slave.c   ****  * Copyright YOUR COMPANY, THE YEAR
   4:spi_Slave.c   ****  * All Rights Reserved
   5:spi_Slave.c   ****  * UNPUBLISHED, LICENSED SOFTWARE.
   6:spi_Slave.c   ****  *
   7:spi_Slave.c   ****  * CONFIDENTIAL AND PROPRIETARY INFORMATION
   8:spi_Slave.c   ****  * WHICH IS THE PROPERTY OF your company.
   9:spi_Slave.c   ****  *
  10:spi_Slave.c   ****  * ========================================
  11:spi_Slave.c   **** */
  12:spi_Slave.c   **** 
  13:spi_Slave.c   **** #include "spi_Slave.h"
  14:spi_Slave.c   **** 
  15:spi_Slave.c   **** void InitializeSPI(void)
  16:spi_Slave.c   **** {
  28              		.loc 1 16 0
  29              		.cfi_startproc
  30              		@ args = 0, pretend = 0, frame = 0
  31              		@ frame_needed = 0, uses_anonymous_args = 0
  32 0000 08B5     		push	{r3, lr}
  33              		.cfi_def_cfa_offset 8
  34              		.cfi_offset 3, -8
  35              		.cfi_offset 14, -4
  17:spi_Slave.c   ****     // Initialiser SPI-modulet her
  18:spi_Slave.c   ****     SPIS_2_Start();
  36              		.loc 1 18 0
  37 0002 FFF7FEFF 		bl	SPIS_2_Start
  38              	.LVL0:
  39 0006 08BD     		pop	{r3, pc}
ARM GAS  C:\Users\ZakiN\AppData\Local\Temp\cc7Waj8i.s 			page 2


  40              		.cfi_endproc
  41              	.LFE63:
  42              		.size	InitializeSPI, .-InitializeSPI
  43              		.section	.text.modtagetSPi,"ax",%progbits
  44              		.align	2
  45              		.global	modtagetSPi
  46              		.thumb
  47              		.thumb_func
  48              		.type	modtagetSPi, %function
  49              	modtagetSPi:
  50              	.LFB64:
  19:spi_Slave.c   ****     
  20:spi_Slave.c   **** }
  21:spi_Slave.c   **** 
  22:spi_Slave.c   **** uint8_t modtagetSPi(void)
  23:spi_Slave.c   **** {
  51              		.loc 1 23 0
  52              		.cfi_startproc
  53              		@ args = 0, pretend = 0, frame = 0
  54              		@ frame_needed = 0, uses_anonymous_args = 0
  55 0000 10B5     		push	{r4, lr}
  56              		.cfi_def_cfa_offset 8
  57              		.cfi_offset 4, -8
  58              		.cfi_offset 14, -4
  59              	.LVL1:
  24:spi_Slave.c   ****     
  25:spi_Slave.c   ****     uint8_t receivedData = 0;
  60              		.loc 1 25 0
  61 0002 0024     		movs	r4, #0
  26:spi_Slave.c   ****     // Lyt for kommandoer fra masteren via SPI
  27:spi_Slave.c   ****     
  28:spi_Slave.c   ****     while(SPIS_2_GetRxBufferSize() != 0)
  62              		.loc 1 28 0
  63 0004 02E0     		b	.L4
  64              	.LVL2:
  65              	.L5:
  29:spi_Slave.c   ****     {
  30:spi_Slave.c   ****         receivedData = SPIS_2_ReadRxData();
  66              		.loc 1 30 0
  67 0006 FFF7FEFF 		bl	SPIS_2_ReadRxData
  68              	.LVL3:
  69 000a 0446     		mov	r4, r0
  70              	.LVL4:
  71              	.L4:
  28:spi_Slave.c   ****     {
  72              		.loc 1 28 0
  73 000c FFF7FEFF 		bl	SPIS_2_GetRxBufferSize
  74              	.LVL5:
  75 0010 0028     		cmp	r0, #0
  76 0012 F8D1     		bne	.L5
  31:spi_Slave.c   ****     }
  32:spi_Slave.c   ****    //returnere dataen    
  33:spi_Slave.c   ****     return receivedData;
  34:spi_Slave.c   ****      
  35:spi_Slave.c   **** }
  77              		.loc 1 35 0
  78 0014 2046     		mov	r0, r4
ARM GAS  C:\Users\ZakiN\AppData\Local\Temp\cc7Waj8i.s 			page 3


  79 0016 10BD     		pop	{r4, pc}
  80              		.cfi_endproc
  81              	.LFE64:
  82              		.size	modtagetSPi, .-modtagetSPi
  83              		.section	.text.sendSPi,"ax",%progbits
  84              		.align	2
  85              		.global	sendSPi
  86              		.thumb
  87              		.thumb_func
  88              		.type	sendSPi, %function
  89              	sendSPi:
  90              	.LFB65:
  36:spi_Slave.c   **** void sendSPi(uint8_t data)
  37:spi_Slave.c   **** {
  91              		.loc 1 37 0
  92              		.cfi_startproc
  93              		@ args = 0, pretend = 0, frame = 0
  94              		@ frame_needed = 0, uses_anonymous_args = 0
  95              	.LVL6:
  96 0000 10B5     		push	{r4, lr}
  97              		.cfi_def_cfa_offset 8
  98              		.cfi_offset 4, -8
  99              		.cfi_offset 14, -4
 100 0002 0446     		mov	r4, r0
 101              	.LVL7:
 102              	.L8:
  38:spi_Slave.c   ****    // Vent, indtil TX-bufferen er klar til at sende data
  39:spi_Slave.c   ****     while ((SPIS_2_ReadTxStatus() & SPIS_2_STS_TX_FIFO_NOT_FULL)==0)
 103              		.loc 1 39 0 discriminator 1
 104 0004 FFF7FEFF 		bl	SPIS_2_ReadTxStatus
 105              	.LVL8:
 106 0008 10F0020F 		tst	r0, #2
 107 000c FAD0     		beq	.L8
  40:spi_Slave.c   ****     {
  41:spi_Slave.c   ****         // Vent, indtil TX-bufferen er klar
  42:spi_Slave.c   ****     }
  43:spi_Slave.c   ****     
  44:spi_Slave.c   ****     // Skriver data til TX-bufferen for at sende det til masteren
  45:spi_Slave.c   ****     SPIS_2_WriteTxData(data);
 108              		.loc 1 45 0
 109 000e 2046     		mov	r0, r4
 110 0010 FFF7FEFF 		bl	SPIS_2_WriteTxData
 111              	.LVL9:
 112 0014 10BD     		pop	{r4, pc}
 113              		.cfi_endproc
 114              	.LFE65:
 115              		.size	sendSPi, .-sendSPi
 116 0016 00BF     		.text
 117              	.Letext0:
 118              		.file 2 "c:\\program files (x86)\\cypress\\psoc creator\\4.4\\psoc creator\\import\\gnu\\arm\\5.4.
 119              		.file 3 "c:\\program files (x86)\\cypress\\psoc creator\\4.4\\psoc creator\\import\\gnu\\arm\\5.4.
 120              		.file 4 "Generated_Source\\PSoC5/cytypes.h"
 121              		.file 5 "Generated_Source\\PSoC5/SPIS_2.h"
 122              		.file 6 "Generated_Source\\PSoC5/core_cm3.h"