ARM GAS  C:\Users\deniz\AppData\Local\Temp\ccjOtf6u.s 			page 1


   1              		.syntax unified
   2              		.cpu cortex-m3
   3              		.fpu softvfp
   4              		.eabi_attribute 20, 1
   5              		.eabi_attribute 21, 1
   6              		.eabi_attribute 23, 3
   7              		.eabi_attribute 24, 1
   8              		.eabi_attribute 25, 1
   9              		.eabi_attribute 26, 1
  10              		.eabi_attribute 30, 1
  11              		.eabi_attribute 34, 1
  12              		.eabi_attribute 18, 4
  13              		.thumb
  14              		.syntax unified
  15              		.file	"Timer.c"
  16              		.text
  17              	.Ltext0:
  18              		.cfi_sections	.debug_frame
  19              		.section	.text.startTidsTagning,"ax",%progbits
  20              		.align	2
  21              		.global	startTidsTagning
  22              		.thumb
  23              		.thumb_func
  24              		.type	startTidsTagning, %function
  25              	startTidsTagning:
  26              	.LFB64:
  27              		.file 1 "Timer.c"
   1:Timer.c       **** /* ========================================
   2:Timer.c       ****  *
   3:Timer.c       ****  * Copyright YOUR COMPANY, THE YEAR
   4:Timer.c       ****  * All Rights Reserved
   5:Timer.c       ****  * UNPUBLISHED, LICENSED SOFTWARE.
   6:Timer.c       ****  *
   7:Timer.c       ****  * CONFIDENTIAL AND PROPRIETARY INFORMATION
   8:Timer.c       ****  * WHICH IS THE PROPERTY OF your company.
   9:Timer.c       ****  *
  10:Timer.c       ****  * ========================================
  11:Timer.c       **** */
  12:Timer.c       **** #include "project.h"
  13:Timer.c       **** #include "Timer.h"
  14:Timer.c       **** #include "spi_Slave.h"
  15:Timer.c       **** #include <stdio.h>
  16:Timer.c       **** 
  17:Timer.c       **** volatile uint16 startCount = 0;
  18:Timer.c       **** volatile uint16 stopCount = 0;
  19:Timer.c       **** uint32 counter=0;
  20:Timer.c       **** 
  21:Timer.c       **** const uint32 tick_period_ms = 10;
  22:Timer.c       **** uint32 start_counter = 0;
  23:Timer.c       **** uint32 stop_counter=0;
  24:Timer.c       **** uint32 time_interval_ticks = 0;
  25:Timer.c       **** uint32 time_interval_ms=0;
  26:Timer.c       **** 
  27:Timer.c       **** 
  28:Timer.c       **** void startTidsTagning()
  29:Timer.c       **** {
  28              		.loc 1 29 0
ARM GAS  C:\Users\deniz\AppData\Local\Temp\ccjOtf6u.s 			page 2


  29              		.cfi_startproc
  30              		@ args = 0, pretend = 0, frame = 0
  31              		@ frame_needed = 0, uses_anonymous_args = 0
  32 0000 08B5     		push	{r3, lr}
  33              		.cfi_def_cfa_offset 8
  34              		.cfi_offset 3, -8
  35              		.cfi_offset 14, -4
  30:Timer.c       ****     
  31:Timer.c       ****     Timer_1_Start();
  36              		.loc 1 31 0
  37 0002 FFF7FEFF 		bl	Timer_1_Start
  38              	.LVL0:
  32:Timer.c       ****     start_counter = Timer_1_ReadCounter();
  39              		.loc 1 32 0
  40 0006 FFF7FEFF 		bl	Timer_1_ReadCounter
  41              	.LVL1:
  42 000a 014B     		ldr	r3, .L3
  43 000c 1860     		str	r0, [r3]
  44 000e 08BD     		pop	{r3, pc}
  45              	.L4:
  46              		.align	2
  47              	.L3:
  48 0010 00000000 		.word	.LANCHOR0
  49              		.cfi_endproc
  50              	.LFE64:
  51              		.size	startTidsTagning, .-startTidsTagning
  52              		.section	.text.stopTidsTagning,"ax",%progbits
  53              		.align	2
  54              		.global	stopTidsTagning
  55              		.thumb
  56              		.thumb_func
  57              		.type	stopTidsTagning, %function
  58              	stopTidsTagning:
  59              	.LFB65:
  33:Timer.c       **** }
  34:Timer.c       **** uint32 stopTidsTagning()
  35:Timer.c       **** {
  60              		.loc 1 35 0
  61              		.cfi_startproc
  62              		@ args = 0, pretend = 0, frame = 0
  63              		@ frame_needed = 0, uses_anonymous_args = 0
  64 0000 10B5     		push	{r4, lr}
  65              		.cfi_def_cfa_offset 8
  66              		.cfi_offset 4, -8
  67              		.cfi_offset 14, -4
  36:Timer.c       ****     
  37:Timer.c       ****     stop_counter = Timer_1_ReadCounter();
  68              		.loc 1 37 0
  69 0002 FFF7FEFF 		bl	Timer_1_ReadCounter
  70              	.LVL2:
  71 0006 074C     		ldr	r4, .L7
  72 0008 6060     		str	r0, [r4, #4]
  38:Timer.c       **** 
  39:Timer.c       ****     // Beregn tidsintervallet i ticks
  40:Timer.c       ****     time_interval_ticks = start_counter - stop_counter;
  73              		.loc 1 40 0
  74 000a 2368     		ldr	r3, [r4]
ARM GAS  C:\Users\deniz\AppData\Local\Temp\ccjOtf6u.s 			page 3


  75 000c 181A     		subs	r0, r3, r0
  76 000e A060     		str	r0, [r4, #8]
  41:Timer.c       **** 
  42:Timer.c       ****     // Konverter tidsintervallet til tid i millisekunder
  43:Timer.c       ****     time_interval_ms = time_interval_ticks/100;
  77              		.loc 1 43 0
  78 0010 054B     		ldr	r3, .L7+4
  79 0012 A3FB0030 		umull	r3, r0, r3, r0
  80 0016 4009     		lsrs	r0, r0, #5
  81 0018 E060     		str	r0, [r4, #12]
  44:Timer.c       ****         
  45:Timer.c       **** 
  46:Timer.c       ****     Timer_1_Stop();
  82              		.loc 1 46 0
  83 001a FFF7FEFF 		bl	Timer_1_Stop
  84              	.LVL3:
  47:Timer.c       ****     
  48:Timer.c       ****     return time_interval_ms;
  49:Timer.c       **** }
  85              		.loc 1 49 0
  86 001e E068     		ldr	r0, [r4, #12]
  87 0020 10BD     		pop	{r4, pc}
  88              	.L8:
  89 0022 00BF     		.align	2
  90              	.L7:
  91 0024 00000000 		.word	.LANCHOR0
  92 0028 1F85EB51 		.word	1374389535
  93              		.cfi_endproc
  94              	.LFE65:
  95              		.size	stopTidsTagning, .-stopTidsTagning
  96              		.section	.text.sendTimeOverSPI,"ax",%progbits
  97              		.align	2
  98              		.global	sendTimeOverSPI
  99              		.thumb
 100              		.thumb_func
 101              		.type	sendTimeOverSPI, %function
 102              	sendTimeOverSPI:
 103              	.LFB66:
  50:Timer.c       **** 
  51:Timer.c       **** void sendTimeOverSPI()
  52:Timer.c       **** {
 104              		.loc 1 52 0
 105              		.cfi_startproc
 106              		@ args = 0, pretend = 0, frame = 8
 107              		@ frame_needed = 0, uses_anonymous_args = 0
 108 0000 10B5     		push	{r4, lr}
 109              		.cfi_def_cfa_offset 8
 110              		.cfi_offset 4, -8
 111              		.cfi_offset 14, -4
 112 0002 82B0     		sub	sp, sp, #8
 113              		.cfi_def_cfa_offset 16
  53:Timer.c       ****     // Assuming time is a 32-bit integer
  54:Timer.c       ****     uint8_t tx_buf[3];
  55:Timer.c       ****     //tx_buf[0] = (time / (1000 * 60)) & 0xFF;         // Minutes
  56:Timer.c       ****     //tx_buf[1] = ((time / 1000) % 60) & 0xFF;         // Seconds
  57:Timer.c       ****     //tx_buf[2] = (time % 1000) & 0xFF;                // Milliseconds
  58:Timer.c       ****       tx_buf[0] = 0x55;
ARM GAS  C:\Users\deniz\AppData\Local\Temp\ccjOtf6u.s 			page 4


 114              		.loc 1 58 0
 115 0004 5523     		movs	r3, #85
 116 0006 8DF80430 		strb	r3, [sp, #4]
  59:Timer.c       ****       tx_buf[1] = 0x33;
 117              		.loc 1 59 0
 118 000a 3323     		movs	r3, #51
 119 000c 8DF80530 		strb	r3, [sp, #5]
  60:Timer.c       ****       tx_buf[2] = 0x81;
 120              		.loc 1 60 0
 121 0010 8123     		movs	r3, #129
 122 0012 8DF80630 		strb	r3, [sp, #6]
 123              	.LVL4:
 124              	.LBB2:
  61:Timer.c       ****     // Initialize SPI
  62:Timer.c       ****     //InitializeSPI();
  63:Timer.c       **** 
  64:Timer.c       ****     // Send each byte over SPI
  65:Timer.c       ****     for (int i = 0; i < 3; ++i)
 125              		.loc 1 65 0
 126 0016 0024     		movs	r4, #0
 127 0018 06E0     		b	.L10
 128              	.LVL5:
 129              	.L11:
  66:Timer.c       ****     {
  67:Timer.c       ****         sendSPi(tx_buf[i]);
 130              		.loc 1 67 0 discriminator 3
 131 001a 02AB     		add	r3, sp, #8
 132 001c 2344     		add	r3, r3, r4
 133 001e 13F8040C 		ldrb	r0, [r3, #-4]	@ zero_extendqisi2
 134 0022 FFF7FEFF 		bl	sendSPi
 135              	.LVL6:
  65:Timer.c       ****     {
 136              		.loc 1 65 0 discriminator 3
 137 0026 0134     		adds	r4, r4, #1
 138              	.LVL7:
 139              	.L10:
  65:Timer.c       ****     {
 140              		.loc 1 65 0 is_stmt 0 discriminator 1
 141 0028 022C     		cmp	r4, #2
 142 002a F6DD     		ble	.L11
 143              	.LBE2:
  68:Timer.c       ****     }
  69:Timer.c       **** }...
 144              		.loc 1 69 0 is_stmt 1
 145 002c 02B0     		add	sp, sp, #8
 146              		.cfi_def_cfa_offset 8
 147              		@ sp needed
 148 002e 10BD     		pop	{r4, pc}
 149              		.cfi_endproc
 150              	.LFE66:
 151              		.size	sendTimeOverSPI, .-sendTimeOverSPI
 152              		.global	time_interval_ms
 153              		.global	time_interval_ticks
 154              		.global	stop_counter
 155              		.global	start_counter
 156              		.global	tick_period_ms
 157              		.global	counter
ARM GAS  C:\Users\deniz\AppData\Local\Temp\ccjOtf6u.s 			page 5


 158              		.global	stopCount
 159              		.global	startCount
 160              		.section	.rodata
 161              		.align	2
 162              		.type	tick_period_ms, %object
 163              		.size	tick_period_ms, 4
 164              	tick_period_ms:
 165 0000 0A000000 		.word	10
 166              		.bss
 167              		.align	2
 168              		.set	.LANCHOR0,. + 0
 169              		.type	start_counter, %object
 170              		.size	start_counter, 4
 171              	start_counter:
 172 0000 00000000 		.space	4
 173              		.type	stop_counter, %object
 174              		.size	stop_counter, 4
 175              	stop_counter:
 176 0004 00000000 		.space	4
 177              		.type	time_interval_ticks, %object
 178              		.size	time_interval_ticks, 4
 179              	time_interval_ticks:
 180 0008 00000000 		.space	4
 181              		.type	time_interval_ms, %object
 182              		.size	time_interval_ms, 4
 183              	time_interval_ms:
 184 000c 00000000 		.space	4
 185              		.type	counter, %object
 186              		.size	counter, 4
 187              	counter:
 188 0010 00000000 		.space	4
 189              		.type	stopCount, %object
 190              		.size	stopCount, 2
 191              	stopCount:
 192 0014 0000     		.space	2
 193              		.type	startCount, %object
 194              		.size	startCount, 2
 195              	startCount:
 196 0016 0000     		.space	2
 197              		.text
 198              	.Letext0:
 199              		.file 2 "c:\\program files (x86)\\cypress\\psoc creator\\4.4\\psoc creator\\import\\gnu\\arm\\5.4.
 200              		.file 3 "c:\\program files (x86)\\cypress\\psoc creator\\4.4\\psoc creator\\import\\gnu\\arm\\5.4.
 201              		.file 4 "Generated_Source\\PSoC5/cytypes.h"
 202              		.file 5 "Generated_Source\\PSoC5/core_cm3.h"
 203              		.file 6 "Generated_Source\\PSoC5/Timer_1.h"
 204              		.file 7 "spi_Slave.h"