ARM GAS  C:\Users\jespe\AppData\Local\Temp\ccKhcU5h.s 			page 1


   1              		.syntax unified
   2              		.cpu cortex-m3
   3              		.fpu softvfp
   4              		.eabi_attribute 20, 1
   5              		.eabi_attribute 21, 1
   6              		.eabi_attribute 23, 3
   7              		.eabi_attribute 24, 1
   8              		.eabi_attribute 25, 1
   9              		.eabi_attribute 26, 1
  10              		.eabi_attribute 30, 6
  11              		.eabi_attribute 34, 1
  12              		.eabi_attribute 18, 4
  13              		.thumb
  14              		.syntax unified
  15              		.file	"main.c"
  16              		.text
  17              	.Ltext0:
  18              		.cfi_sections	.debug_frame
  19              		.comm	InterruptCnt,1,1
  20              		.section	.text.InterruptHandler,"ax",%progbits
  21              		.align	2
  22              		.global	InterruptHandler
  23              		.thumb
  24              		.thumb_func
  25              		.type	InterruptHandler, %function
  26              	InterruptHandler:
  27              	.LFB63:
  28              		.file 1 "main.c"
   1:main.c        **** /********************************************************************************
   2:main.c        **** * File Name: main.c
   3:main.c        **** *
   4:main.c        **** * Version : 1.10
   5:main.c        **** *
   6:main.c        **** * Description: 
   7:main.c        **** *  This is a source code for example project of 16 bit Timer UDB Block.
   8:main.c        **** *
   9:main.c        **** * Test Result:
  10:main.c        **** *  Watch capture output on P0_0, tc output on P0_1, and Period, Compare and 
  11:main.c        **** *  Count value on LCD.
  12:main.c        **** *
  13:main.c        **** ********************************************************************************
  14:main.c        **** * Copyright 2012-2017, Cypress Semiconductor Corporation. All rights reserved.
  15:main.c        **** * This software is owned by Cypress Semiconductor Corporation and is protected
  16:main.c        **** * by and subject to worldwide patent and copyright laws and treaties.
  17:main.c        **** * Therefore, you may use this software only as provided in the license agreement
  18:main.c        **** * accompanying the software package from which you obtained this software.
  19:main.c        **** * CYPRESS AND ITS SUPPLIERS MAKE NO WARRANTY OF ANY KIND, EXPRESS OR IMPLIED,
  20:main.c        **** * WITH REGARD TO THIS SOFTWARE, INCLUDING, BUT NOT LIMITED TO, NONINFRINGEMENT,
  21:main.c        **** * IMPLIED WARRANTIES OF MERCHANTABILITY AND FITNESS FOR A PARTICULAR PURPOSE.
  22:main.c        **** *******************************************************************************/
  23:main.c        **** #include <project.h>
  24:main.c        **** 
  25:main.c        **** uint8 InterruptCnt;
  26:main.c        **** 
  27:main.c        **** 
  28:main.c        **** /*******************************************************************************
  29:main.c        **** * Define Interrupt service routine and allocate an vector to the Interrupt
ARM GAS  C:\Users\jespe\AppData\Local\Temp\ccKhcU5h.s 			page 2


  30:main.c        **** ********************************************************************************/
  31:main.c        **** CY_ISR(InterruptHandler)
  32:main.c        **** {
  29              		.loc 1 32 0
  30              		.cfi_startproc
  31              		@ args = 0, pretend = 0, frame = 0
  32              		@ frame_needed = 1, uses_anonymous_args = 0
  33              		@ link register save eliminated.
  34 0000 80B4     		push	{r7}
  35              		.cfi_def_cfa_offset 4
  36              		.cfi_offset 7, -4
  37 0002 00AF     		add	r7, sp, #0
  38              		.cfi_def_cfa_register 7
  33:main.c        **** 	/* Read Status register in order to clear the sticky Terminal Count (TC) bit 
  34:main.c        **** 	 * in the status register. Note that the function is not called, but rather 
  35:main.c        **** 	 * the status is read directly.
  36:main.c        **** 	 */
  37:main.c        ****    	Timer_1_STATUS;
  39              		.loc 1 37 0
  40 0004 054B     		ldr	r3, .L2
  41 0006 1B78     		ldrb	r3, [r3]
  38:main.c        ****     
  39:main.c        **** 	/* Increment the Counter to indicate the keep track of the number of 
  40:main.c        ****      * interrupts received */
  41:main.c        ****     InterruptCnt++;    
  42              		.loc 1 41 0
  43 0008 054B     		ldr	r3, .L2+4
  44 000a 1B78     		ldrb	r3, [r3]	@ zero_extendqisi2
  45 000c 0133     		adds	r3, r3, #1
  46 000e DAB2     		uxtb	r2, r3
  47 0010 034B     		ldr	r3, .L2+4
  48 0012 1A70     		strb	r2, [r3]
  42:main.c        **** }
  49              		.loc 1 42 0
  50 0014 00BF     		nop
  51 0016 BD46     		mov	sp, r7
  52              		.cfi_def_cfa_register 13
  53              		@ sp needed
  54 0018 80BC     		pop	{r7}
  55              		.cfi_restore 7
  56              		.cfi_def_cfa_offset 0
  57 001a 7047     		bx	lr
  58              	.L3:
  59              		.align	2
  60              	.L2:
  61 001c 63640040 		.word	1073767523
  62 0020 00000000 		.word	InterruptCnt
  63              		.cfi_endproc
  64              	.LFE63:
  65              		.size	InterruptHandler, .-InterruptHandler
  66              		.section	.rodata
  67              		.align	2
  68              	.LC0:
  69 0000 544D522D 		.ascii	"TMR-16\000"
  69      313600
  70 0007 00       		.align	2
  71              	.LC1:
ARM GAS  C:\Users\jespe\AppData\Local\Temp\ccKhcU5h.s 			page 3


  72 0008 496E7443 		.ascii	"IntCnt:\000"
  72      6E743A00 
  73              		.section	.text.main,"ax",%progbits
  74              		.align	2
  75              		.global	main
  76              		.thumb
  77              		.thumb_func
  78              		.type	main, %function
  79              	main:
  80              	.LFB64:
  43:main.c        **** 
  44:main.c        **** 
  45:main.c        **** /*******************************************************************************
  46:main.c        **** * Function Name: main
  47:main.c        **** ********************************************************************************
  48:main.c        **** *
  49:main.c        **** * Summary:
  50:main.c        **** * Main function performs following functions:
  51:main.c        **** * 1: Enables the clock
  52:main.c        **** * 2: Start the Timer
  53:main.c        **** * 3: Initializes the LCD
  54:main.c        **** * 4: Print Period, capture, counter value on LCD
  55:main.c        **** * 
  56:main.c        **** * Parameters:
  57:main.c        **** *  None.
  58:main.c        **** *
  59:main.c        **** * Return:
  60:main.c        **** *  None.
  61:main.c        **** *
  62:main.c        **** *******************************************************************************/
  63:main.c        **** int main()
  64:main.c        **** {   
  81              		.loc 1 64 0
  82              		.cfi_startproc
  83              		@ args = 0, pretend = 0, frame = 0
  84              		@ frame_needed = 1, uses_anonymous_args = 0
  85 0000 80B5     		push	{r7, lr}
  86              		.cfi_def_cfa_offset 8
  87              		.cfi_offset 7, -8
  88              		.cfi_offset 14, -4
  89 0002 00AF     		add	r7, sp, #0
  90              		.cfi_def_cfa_register 7
  65:main.c        ****     /* Enable the global interrupt */
  66:main.c        ****     CyGlobalIntEnable;
  91              		.loc 1 66 0
  92              		.syntax unified
  93              	@ 66 "main.c" 1
  94 0004 62B6     		CPSIE   i
  95              	@ 0 "" 2
  67:main.c        ****     
  68:main.c        ****     /* Enable the Interrupt component connected to Timer interrupt */
  69:main.c        ****     TimerISR_StartEx(InterruptHandler);
  96              		.loc 1 69 0
  97              		.thumb
  98              		.syntax unified
  99 0006 1E48     		ldr	r0, .L6
 100 0008 FFF7FEFF 		bl	TimerISR_StartEx
ARM GAS  C:\Users\jespe\AppData\Local\Temp\ccKhcU5h.s 			page 4


  70:main.c        **** 
  71:main.c        **** 	/* Start the components */
  72:main.c        ****     Timer_1_Start();
 101              		.loc 1 72 0
 102 000c FFF7FEFF 		bl	Timer_1_Start
  73:main.c        **** 
  74:main.c        ****     /* Display TMR-16 on LCD */
  75:main.c        ****     LCD_Start();
 103              		.loc 1 75 0
 104 0010 FFF7FEFF 		bl	LCD_Start
  76:main.c        ****     LCD_Position(0u, 0u);
 105              		.loc 1 76 0
 106 0014 0021     		movs	r1, #0
 107 0016 0020     		movs	r0, #0
 108 0018 FFF7FEFF 		bl	LCD_Position
  77:main.c        ****     LCD_PrintString("TMR-16"); 
 109              		.loc 1 77 0
 110 001c 1948     		ldr	r0, .L6+4
 111 001e FFF7FEFF 		bl	LCD_PrintString
 112              	.L5:
  78:main.c        **** 
  79:main.c        ****     for(;;)
  80:main.c        ****     {
  81:main.c        ****         /* To display Period on LCD */
  82:main.c        ****         LCD_Position(0u, 7u);
 113              		.loc 1 82 0 discriminator 1
 114 0022 0721     		movs	r1, #7
 115 0024 0020     		movs	r0, #0
 116 0026 FFF7FEFF 		bl	LCD_Position
  83:main.c        ****         LCD_PrintInt16(Timer_1_ReadPeriod());
 117              		.loc 1 83 0 discriminator 1
 118 002a FFF7FEFF 		bl	Timer_1_ReadPeriod
 119 002e 0346     		mov	r3, r0
 120 0030 1846     		mov	r0, r3
 121 0032 FFF7FEFF 		bl	LCD_PrintInt16
  84:main.c        **** 
  85:main.c        ****         /* To display Capture value on LCD */
  86:main.c        ****         LCD_Position(0u, 12u);
 122              		.loc 1 86 0 discriminator 1
 123 0036 0C21     		movs	r1, #12
 124 0038 0020     		movs	r0, #0
 125 003a FFF7FEFF 		bl	LCD_Position
  87:main.c        ****         LCD_PrintInt16(Timer_1_ReadCapture());
 126              		.loc 1 87 0 discriminator 1
 127 003e FFF7FEFF 		bl	Timer_1_ReadCapture
 128 0042 0346     		mov	r3, r0
 129 0044 1846     		mov	r0, r3
 130 0046 FFF7FEFF 		bl	LCD_PrintInt16
  88:main.c        **** 
  89:main.c        ****         /* To display count on LCD */
  90:main.c        ****         LCD_Position(1u, 0u);
 131              		.loc 1 90 0 discriminator 1
 132 004a 0021     		movs	r1, #0
 133 004c 0120     		movs	r0, #1
 134 004e FFF7FEFF 		bl	LCD_Position
  91:main.c        ****         LCD_PrintInt16(Timer_1_ReadCounter());
 135              		.loc 1 91 0 discriminator 1
ARM GAS  C:\Users\jespe\AppData\Local\Temp\ccKhcU5h.s 			page 5


 136 0052 FFF7FEFF 		bl	Timer_1_ReadCounter
 137 0056 0346     		mov	r3, r0
 138 0058 1846     		mov	r0, r3
 139 005a FFF7FEFF 		bl	LCD_PrintInt16
  92:main.c        **** 
  93:main.c        ****         /* To display Interrupt count on LCD */
  94:main.c        ****         LCD_Position(1u, 5u);
 140              		.loc 1 94 0 discriminator 1
 141 005e 0521     		movs	r1, #5
 142 0060 0120     		movs	r0, #1
 143 0062 FFF7FEFF 		bl	LCD_Position
  95:main.c        ****         LCD_PrintString("IntCnt:");
 144              		.loc 1 95 0 discriminator 1
 145 0066 0848     		ldr	r0, .L6+8
 146 0068 FFF7FEFF 		bl	LCD_PrintString
  96:main.c        ****         LCD_PrintInt16(InterruptCnt);
 147              		.loc 1 96 0 discriminator 1
 148 006c 074B     		ldr	r3, .L6+12
 149 006e 1B78     		ldrb	r3, [r3]	@ zero_extendqisi2
 150 0070 9BB2     		uxth	r3, r3
 151 0072 1846     		mov	r0, r3
 152 0074 FFF7FEFF 		bl	LCD_PrintInt16
  97:main.c        **** 		
  98:main.c        **** 		CyDelay(100u);
 153              		.loc 1 98 0 discriminator 1
 154 0078 6420     		movs	r0, #100
 155 007a FFF7FEFF 		bl	CyDelay
  99:main.c        ****     }
 156              		.loc 1 99 0 discriminator 1
 157 007e D0E7     		b	.L5
 158              	.L7:
 159              		.align	2
 160              	.L6:
 161 0080 00000000 		.word	InterruptHandler
 162 0084 00000000 		.word	.LC0
 163 0088 08000000 		.word	.LC1
 164 008c 00000000 		.word	InterruptCnt
 165              		.cfi_endproc
 166              	.LFE64:
 167              		.size	main, .-main
 168              		.text
 169              	.Letext0:
 170              		.file 2 "c:\\program files (x86)\\cypress\\psoc creator\\4.2\\psoc creator\\import\\gnu\\arm\\5.4.
 171              		.file 3 "c:\\program files (x86)\\cypress\\psoc creator\\4.2\\psoc creator\\import\\gnu\\arm\\5.4.
 172              		.file 4 "Generated_Source\\PSoC5/cytypes.h"
 173              		.file 5 "Generated_Source\\PSoC5/core_cm3.h"