ARM GAS  C:\Users\jespe\AppData\Local\Temp\ccKrMIg3.s 			page 1


   1              		.syntax unified
   2              		.cpu cortex-m3
   3              		.fpu softvfp
   4              		.eabi_attribute 20, 1
   5              		.eabi_attribute 21, 1
   6              		.eabi_attribute 23, 3
   7              		.eabi_attribute 24, 1
   8              		.eabi_attribute 25, 1
   9              		.eabi_attribute 26, 1
  10              		.eabi_attribute 30, 1
  11              		.eabi_attribute 34, 1
  12              		.eabi_attribute 18, 4
  13              		.thumb
  14              		.syntax unified
  15              		.file	"stepper.c"
  16              		.text
  17              	.Ltext0:
  18              		.cfi_sections	.debug_frame
  19              		.section	.text.stepperdriver_init,"ax",%progbits
  20              		.align	2
  21              		.global	stepperdriver_init
  22              		.thumb
  23              		.thumb_func
  24              		.type	stepperdriver_init, %function
  25              	stepperdriver_init:
  26              	.LFB63:
  27              		.file 1 "stepper.c"
   1:stepper.c     **** /* ========================================
   2:stepper.c     ****  *
   3:stepper.c     ****  * Copyright YOUR COMPANY, THE YEAR
   4:stepper.c     ****  * All Rights Reserved
   5:stepper.c     ****  * UNPUBLISHED, LICENSED SOFTWARE.
   6:stepper.c     ****  *
   7:stepper.c     ****  * CONFIDENTIAL AND PROPRIETARY INFORMATION
   8:stepper.c     ****  * WHICH IS THE PROPERTY OF your company.
   9:stepper.c     ****  *
  10:stepper.c     ****  * ========================================
  11:stepper.c     **** */
  12:stepper.c     **** 
  13:stepper.c     **** #include "stepper.h"
  14:stepper.c     **** #define CLOSED_ANGLE 0
  15:stepper.c     **** #define STEPS_PER_DEGREE_half 0.267 // Assuming a standard 200 steps per revolution stepper motor
  16:stepper.c     **** #define STEPS_PER_DEGREE_other 0.133
  17:stepper.c     **** 
  18:stepper.c     **** static char stepcount=0;
  19:stepper.c     **** int currentPosition = CLOSED_ANGLE;
  20:stepper.c     **** 
  21:stepper.c     **** void stepperdriver_init()
  22:stepper.c     **** {
  28              		.loc 1 22 0
  29              		.cfi_startproc
  30              		@ args = 0, pretend = 0, frame = 0
  31              		@ frame_needed = 0, uses_anonymous_args = 0
  32              		@ link register save eliminated.
  33 0000 7047     		bx	lr
  34              		.cfi_endproc
  35              	.LFE63:
ARM GAS  C:\Users\jespe\AppData\Local\Temp\ccKrMIg3.s 			page 2


  36              		.size	stepperdriver_init, .-stepperdriver_init
  37 0002 00BF     		.section	.text.coilA1,"ax",%progbits
  38              		.align	2
  39              		.global	coilA1
  40              		.thumb
  41              		.thumb_func
  42              		.type	coilA1, %function
  43              	coilA1:
  44              	.LFB64:
  23:stepper.c     **** 	
  24:stepper.c     **** }
  25:stepper.c     **** 
  26:stepper.c     **** void coilA1(void)
  27:stepper.c     **** {
  45              		.loc 1 27 0
  46              		.cfi_startproc
  47              		@ args = 0, pretend = 0, frame = 0
  48              		@ frame_needed = 0, uses_anonymous_args = 0
  49              		.loc 1 27 0
  50 0000 08B5     		push	{r3, lr}
  51              		.cfi_def_cfa_offset 8
  52              		.cfi_offset 3, -8
  53              		.cfi_offset 14, -4
  28:stepper.c     ****     A2_Write(0);
  54              		.loc 1 28 0
  55 0002 0020     		movs	r0, #0
  56 0004 FFF7FEFF 		bl	A2_Write
  57              	.LVL0:
  29:stepper.c     ****     B1_Write(0);
  58              		.loc 1 29 0
  59 0008 0020     		movs	r0, #0
  60 000a FFF7FEFF 		bl	B1_Write
  61              	.LVL1:
  30:stepper.c     ****     B2_Write(0);
  62              		.loc 1 30 0
  63 000e 0020     		movs	r0, #0
  64 0010 FFF7FEFF 		bl	B2_Write
  65              	.LVL2:
  31:stepper.c     ****     A1_Write(1);
  66              		.loc 1 31 0
  67 0014 0120     		movs	r0, #1
  68 0016 FFF7FEFF 		bl	A1_Write
  69              	.LVL3:
  70 001a 08BD     		pop	{r3, pc}
  71              		.cfi_endproc
  72              	.LFE64:
  73              		.size	coilA1, .-coilA1
  74              		.section	.text.coilA2,"ax",%progbits
  75              		.align	2
  76              		.global	coilA2
  77              		.thumb
  78              		.thumb_func
  79              		.type	coilA2, %function
  80              	coilA2:
  81              	.LFB65:
  32:stepper.c     **** }
  33:stepper.c     **** void coilA2(void)
ARM GAS  C:\Users\jespe\AppData\Local\Temp\ccKrMIg3.s 			page 3


  34:stepper.c     **** {
  82              		.loc 1 34 0
  83              		.cfi_startproc
  84              		@ args = 0, pretend = 0, frame = 0
  85              		@ frame_needed = 0, uses_anonymous_args = 0
  86 0000 08B5     		push	{r3, lr}
  87              		.cfi_def_cfa_offset 8
  88              		.cfi_offset 3, -8
  89              		.cfi_offset 14, -4
  35:stepper.c     ****     B1_Write(0);
  90              		.loc 1 35 0
  91 0002 0020     		movs	r0, #0
  92 0004 FFF7FEFF 		bl	B1_Write
  93              	.LVL4:
  36:stepper.c     ****     B2_Write(0);
  94              		.loc 1 36 0
  95 0008 0020     		movs	r0, #0
  96 000a FFF7FEFF 		bl	B2_Write
  97              	.LVL5:
  37:stepper.c     ****     A1_Write(0);
  98              		.loc 1 37 0
  99 000e 0020     		movs	r0, #0
 100 0010 FFF7FEFF 		bl	A1_Write
 101              	.LVL6:
  38:stepper.c     ****     A2_Write(1);
 102              		.loc 1 38 0
 103 0014 0120     		movs	r0, #1
 104 0016 FFF7FEFF 		bl	A2_Write
 105              	.LVL7:
 106 001a 08BD     		pop	{r3, pc}
 107              		.cfi_endproc
 108              	.LFE65:
 109              		.size	coilA2, .-coilA2
 110              		.section	.text.coilB1,"ax",%progbits
 111              		.align	2
 112              		.global	coilB1
 113              		.thumb
 114              		.thumb_func
 115              		.type	coilB1, %function
 116              	coilB1:
 117              	.LFB66:
  39:stepper.c     **** }
  40:stepper.c     **** void coilB1(void)
  41:stepper.c     **** {
 118              		.loc 1 41 0
 119              		.cfi_startproc
 120              		@ args = 0, pretend = 0, frame = 0
 121              		@ frame_needed = 0, uses_anonymous_args = 0
 122 0000 08B5     		push	{r3, lr}
 123              		.cfi_def_cfa_offset 8
 124              		.cfi_offset 3, -8
 125              		.cfi_offset 14, -4
  42:stepper.c     ****     A2_Write(0);
 126              		.loc 1 42 0
 127 0002 0020     		movs	r0, #0
 128 0004 FFF7FEFF 		bl	A2_Write
 129              	.LVL8:
ARM GAS  C:\Users\jespe\AppData\Local\Temp\ccKrMIg3.s 			page 4


  43:stepper.c     ****     B2_Write(0);
 130              		.loc 1 43 0
 131 0008 0020     		movs	r0, #0
 132 000a FFF7FEFF 		bl	B2_Write
 133              	.LVL9:
  44:stepper.c     ****     A1_Write(0);
 134              		.loc 1 44 0
 135 000e 0020     		movs	r0, #0
 136 0010 FFF7FEFF 		bl	A1_Write
 137              	.LVL10:
  45:stepper.c     ****     B1_Write(1);
 138              		.loc 1 45 0
 139 0014 0120     		movs	r0, #1
 140 0016 FFF7FEFF 		bl	B1_Write
 141              	.LVL11:
 142 001a 08BD     		pop	{r3, pc}
 143              		.cfi_endproc
 144              	.LFE66:
 145              		.size	coilB1, .-coilB1
 146              		.section	.text.coilB2,"ax",%progbits
 147              		.align	2
 148              		.global	coilB2
 149              		.thumb
 150              		.thumb_func
 151              		.type	coilB2, %function
 152              	coilB2:
 153              	.LFB67:
  46:stepper.c     **** }
  47:stepper.c     **** void coilB2(void)
  48:stepper.c     **** {
 154              		.loc 1 48 0
 155              		.cfi_startproc
 156              		@ args = 0, pretend = 0, frame = 0
 157              		@ frame_needed = 0, uses_anonymous_args = 0
 158 0000 08B5     		push	{r3, lr}
 159              		.cfi_def_cfa_offset 8
 160              		.cfi_offset 3, -8
 161              		.cfi_offset 14, -4
  49:stepper.c     ****     A2_Write(0);
 162              		.loc 1 49 0
 163 0002 0020     		movs	r0, #0
 164 0004 FFF7FEFF 		bl	A2_Write
 165              	.LVL12:
  50:stepper.c     ****     B1_Write(0);
 166              		.loc 1 50 0
 167 0008 0020     		movs	r0, #0
 168 000a FFF7FEFF 		bl	B1_Write
 169              	.LVL13:
  51:stepper.c     ****     A1_Write(0);
 170              		.loc 1 51 0
 171 000e 0020     		movs	r0, #0
 172 0010 FFF7FEFF 		bl	A1_Write
 173              	.LVL14:
  52:stepper.c     ****     B2_Write(1);
 174              		.loc 1 52 0
 175 0014 0120     		movs	r0, #1
 176 0016 FFF7FEFF 		bl	B2_Write
ARM GAS  C:\Users\jespe\AppData\Local\Temp\ccKrMIg3.s 			page 5


 177              	.LVL15:
 178 001a 08BD     		pop	{r3, pc}
 179              		.cfi_endproc
 180              	.LFE67:
 181              		.size	coilB2, .-coilB2
 182              		.section	.text.coilA1A2,"ax",%progbits
 183              		.align	2
 184              		.global	coilA1A2
 185              		.thumb
 186              		.thumb_func
 187              		.type	coilA1A2, %function
 188              	coilA1A2:
 189              	.LFB68:
  53:stepper.c     **** }
  54:stepper.c     **** void coilA1A2(void)
  55:stepper.c     **** {
 190              		.loc 1 55 0
 191              		.cfi_startproc
 192              		@ args = 0, pretend = 0, frame = 0
 193              		@ frame_needed = 0, uses_anonymous_args = 0
 194 0000 08B5     		push	{r3, lr}
 195              		.cfi_def_cfa_offset 8
 196              		.cfi_offset 3, -8
 197              		.cfi_offset 14, -4
  56:stepper.c     ****     B1_Write(0);
 198              		.loc 1 56 0
 199 0002 0020     		movs	r0, #0
 200 0004 FFF7FEFF 		bl	B1_Write
 201              	.LVL16:
  57:stepper.c     ****     B2_Write(0);
 202              		.loc 1 57 0
 203 0008 0020     		movs	r0, #0
 204 000a FFF7FEFF 		bl	B2_Write
 205              	.LVL17:
  58:stepper.c     ****     A1_Write(1);
 206              		.loc 1 58 0
 207 000e 0120     		movs	r0, #1
 208 0010 FFF7FEFF 		bl	A1_Write
 209              	.LVL18:
  59:stepper.c     ****     A2_Write(1);
 210              		.loc 1 59 0
 211 0014 0120     		movs	r0, #1
 212 0016 FFF7FEFF 		bl	A2_Write
 213              	.LVL19:
 214 001a 08BD     		pop	{r3, pc}
 215              		.cfi_endproc
 216              	.LFE68:
 217              		.size	coilA1A2, .-coilA1A2
 218              		.section	.text.coilA2B1,"ax",%progbits
 219              		.align	2
 220              		.global	coilA2B1
 221              		.thumb
 222              		.thumb_func
 223              		.type	coilA2B1, %function
 224              	coilA2B1:
 225              	.LFB69:
  60:stepper.c     **** }
ARM GAS  C:\Users\jespe\AppData\Local\Temp\ccKrMIg3.s 			page 6


  61:stepper.c     **** void coilA2B1(void)
  62:stepper.c     **** {
 226              		.loc 1 62 0
 227              		.cfi_startproc
 228              		@ args = 0, pretend = 0, frame = 0
 229              		@ frame_needed = 0, uses_anonymous_args = 0
 230 0000 08B5     		push	{r3, lr}
 231              		.cfi_def_cfa_offset 8
 232              		.cfi_offset 3, -8
 233              		.cfi_offset 14, -4
  63:stepper.c     ****     A1_Write(0);
 234              		.loc 1 63 0
 235 0002 0020     		movs	r0, #0
 236 0004 FFF7FEFF 		bl	A1_Write
 237              	.LVL20:
  64:stepper.c     ****     B2_Write(0);
 238              		.loc 1 64 0
 239 0008 0020     		movs	r0, #0
 240 000a FFF7FEFF 		bl	B2_Write
 241              	.LVL21:
  65:stepper.c     ****     B1_Write(1);
 242              		.loc 1 65 0
 243 000e 0120     		movs	r0, #1
 244 0010 FFF7FEFF 		bl	B1_Write
 245              	.LVL22:
  66:stepper.c     ****     A2_Write(1);
 246              		.loc 1 66 0
 247 0014 0120     		movs	r0, #1
 248 0016 FFF7FEFF 		bl	A2_Write
 249              	.LVL23:
 250 001a 08BD     		pop	{r3, pc}
 251              		.cfi_endproc
 252              	.LFE69:
 253              		.size	coilA2B1, .-coilA2B1
 254              		.section	.text.coilB1B2,"ax",%progbits
 255              		.align	2
 256              		.global	coilB1B2
 257              		.thumb
 258              		.thumb_func
 259              		.type	coilB1B2, %function
 260              	coilB1B2:
 261              	.LFB70:
  67:stepper.c     **** }
  68:stepper.c     **** void coilB1B2(void)
  69:stepper.c     **** {
 262              		.loc 1 69 0
 263              		.cfi_startproc
 264              		@ args = 0, pretend = 0, frame = 0
 265              		@ frame_needed = 0, uses_anonymous_args = 0
 266 0000 08B5     		push	{r3, lr}
 267              		.cfi_def_cfa_offset 8
 268              		.cfi_offset 3, -8
 269              		.cfi_offset 14, -4
  70:stepper.c     ****     A2_Write(0);
 270              		.loc 1 70 0
 271 0002 0020     		movs	r0, #0
 272 0004 FFF7FEFF 		bl	A2_Write
ARM GAS  C:\Users\jespe\AppData\Local\Temp\ccKrMIg3.s 			page 7


 273              	.LVL24:
  71:stepper.c     ****     A1_Write(0);
 274              		.loc 1 71 0
 275 0008 0020     		movs	r0, #0
 276 000a FFF7FEFF 		bl	A1_Write
 277              	.LVL25:
  72:stepper.c     ****     B2_Write(1);
 278              		.loc 1 72 0
 279 000e 0120     		movs	r0, #1
 280 0010 FFF7FEFF 		bl	B2_Write
 281              	.LVL26:
  73:stepper.c     ****     B1_Write(1);
 282              		.loc 1 73 0
 283 0014 0120     		movs	r0, #1
 284 0016 FFF7FEFF 		bl	B1_Write
 285              	.LVL27:
 286 001a 08BD     		pop	{r3, pc}
 287              		.cfi_endproc
 288              	.LFE70:
 289              		.size	coilB1B2, .-coilB1B2
 290              		.section	.text.coilB2A1,"ax",%progbits
 291              		.align	2
 292              		.global	coilB2A1
 293              		.thumb
 294              		.thumb_func
 295              		.type	coilB2A1, %function
 296              	coilB2A1:
 297              	.LFB71:
  74:stepper.c     **** }
  75:stepper.c     **** void coilB2A1(void)
  76:stepper.c     **** {
 298              		.loc 1 76 0
 299              		.cfi_startproc
 300              		@ args = 0, pretend = 0, frame = 0
 301              		@ frame_needed = 0, uses_anonymous_args = 0
 302 0000 08B5     		push	{r3, lr}
 303              		.cfi_def_cfa_offset 8
 304              		.cfi_offset 3, -8
 305              		.cfi_offset 14, -4
  77:stepper.c     ****     B1_Write(0);
 306              		.loc 1 77 0
 307 0002 0020     		movs	r0, #0
 308 0004 FFF7FEFF 		bl	B1_Write
 309              	.LVL28:
  78:stepper.c     ****     A2_Write(0);
 310              		.loc 1 78 0
 311 0008 0020     		movs	r0, #0
 312 000a FFF7FEFF 		bl	A2_Write
 313              	.LVL29:
  79:stepper.c     ****     A1_Write(1);
 314              		.loc 1 79 0
 315 000e 0120     		movs	r0, #1
 316 0010 FFF7FEFF 		bl	A1_Write
 317              	.LVL30:
  80:stepper.c     ****     B2_Write(1);
 318              		.loc 1 80 0
 319 0014 0120     		movs	r0, #1
ARM GAS  C:\Users\jespe\AppData\Local\Temp\ccKrMIg3.s 			page 8


 320 0016 FFF7FEFF 		bl	B2_Write
 321              	.LVL31:
 322 001a 08BD     		pop	{r3, pc}
 323              		.cfi_endproc
 324              	.LFE71:
 325              		.size	coilB2A1, .-coilB2A1
 326              		.section	.text.stop,"ax",%progbits
 327              		.align	2
 328              		.global	stop
 329              		.thumb
 330              		.thumb_func
 331              		.type	stop, %function
 332              	stop:
 333              	.LFB72:
  81:stepper.c     **** }
  82:stepper.c     **** void stop(void)
  83:stepper.c     **** {
 334              		.loc 1 83 0
 335              		.cfi_startproc
 336              		@ args = 0, pretend = 0, frame = 0
 337              		@ frame_needed = 0, uses_anonymous_args = 0
 338 0000 08B5     		push	{r3, lr}
 339              		.cfi_def_cfa_offset 8
 340              		.cfi_offset 3, -8
 341              		.cfi_offset 14, -4
  84:stepper.c     ****     B1_Write(0);
 342              		.loc 1 84 0
 343 0002 0020     		movs	r0, #0
 344 0004 FFF7FEFF 		bl	B1_Write
 345              	.LVL32:
  85:stepper.c     ****     B2_Write(0);
 346              		.loc 1 85 0
 347 0008 0020     		movs	r0, #0
 348 000a FFF7FEFF 		bl	B2_Write
 349              	.LVL33:
  86:stepper.c     ****     A1_Write(0);
 350              		.loc 1 86 0
 351 000e 0020     		movs	r0, #0
 352 0010 FFF7FEFF 		bl	A1_Write
 353              	.LVL34:
  87:stepper.c     ****     A2_Write(0);
 354              		.loc 1 87 0
 355 0014 0020     		movs	r0, #0
 356 0016 FFF7FEFF 		bl	A2_Write
 357              	.LVL35:
 358 001a 08BD     		pop	{r3, pc}
 359              		.cfi_endproc
 360              	.LFE72:
 361              		.size	stop, .-stop
 362              		.section	.text.takestep,"ax",%progbits
 363              		.align	2
 364              		.global	takestep
 365              		.thumb
 366              		.thumb_func
 367              		.type	takestep, %function
 368              	takestep:
 369              	.LFB73:
ARM GAS  C:\Users\jespe\AppData\Local\Temp\ccKrMIg3.s 			page 9


  88:stepper.c     **** }
  89:stepper.c     **** 
  90:stepper.c     **** 
  91:stepper.c     **** void takestep(char step_mode, char frem)
  92:stepper.c     **** {
 370              		.loc 1 92 0
 371              		.cfi_startproc
 372              		@ args = 0, pretend = 0, frame = 0
 373              		@ frame_needed = 0, uses_anonymous_args = 0
 374              	.LVL36:
 375 0000 08B5     		push	{r3, lr}
 376              		.cfi_def_cfa_offset 8
 377              		.cfi_offset 3, -8
 378              		.cfi_offset 14, -4
  93:stepper.c     **** 	
  94:stepper.c     **** 	 switch(step_mode)
 379              		.loc 1 94 0
 380 0002 6828     		cmp	r0, #104
 381 0004 79D0     		beq	.L22
 382 0006 7728     		cmp	r0, #119
 383 0008 03D0     		beq	.L23
 384 000a 6628     		cmp	r0, #102
 385 000c 40F0FD80 		bne	.L20
 386 0010 39E0     		b	.L24
 387              	.L23:
  95:stepper.c     **** 	 {
  96:stepper.c     **** 		 case 'w':
  97:stepper.c     **** 		 {
  98:stepper.c     **** 			 switch(stepcount)
 388              		.loc 1 98 0
 389 0012 7E4B     		ldr	r3, .L69
 390 0014 1B78     		ldrb	r3, [r3]	@ zero_extendqisi2
 391 0016 072B     		cmp	r3, #7
 392 0018 00F2F780 		bhi	.L20
 393 001c DFE803F0 		tbb	[pc, r3]
 394              	.L26:
 395 0020 04       		.byte	(.L25-.L26)/2
 396 0021 04       		.byte	(.L25-.L26)/2
 397 0022 10       		.byte	(.L27-.L26)/2
 398 0023 10       		.byte	(.L27-.L26)/2
 399 0024 1C       		.byte	(.L28-.L26)/2
 400 0025 1C       		.byte	(.L28-.L26)/2
 401 0026 28       		.byte	(.L29-.L26)/2
 402 0027 28       		.byte	(.L29-.L26)/2
 403              		.p2align 1
 404              	.L25:
  99:stepper.c     **** 			 {
 100:stepper.c     **** 				 case 0:
 101:stepper.c     **** 				 case 1:
 102:stepper.c     **** 				 {
 103:stepper.c     **** 					 
 104:stepper.c     **** 					 
 105:stepper.c     **** 					 if(frem==1)
 405              		.loc 1 105 0
 406 0028 0129     		cmp	r1, #1
 407 002a 02D1     		bne	.L30
 106:stepper.c     **** 						coilA1();
ARM GAS  C:\Users\jespe\AppData\Local\Temp\ccKrMIg3.s 			page 10


 408              		.loc 1 106 0
 409 002c FFF7FEFF 		bl	coilA1
 410              	.LVL37:
 411 0030 01E0     		b	.L31
 412              	.LVL38:
 413              	.L30:
 107:stepper.c     **** 					 else
 108:stepper.c     **** 						coilB2();
 414              		.loc 1 108 0
 415 0032 FFF7FEFF 		bl	coilB2
 416              	.LVL39:
 417              	.L31:
 109:stepper.c     ****                         
 110:stepper.c     ****                         stepcount+=2;
 418              		.loc 1 110 0
 419 0036 754A     		ldr	r2, .L69
 420 0038 1378     		ldrb	r3, [r2]	@ zero_extendqisi2
 421 003a 0233     		adds	r3, r3, #2
 422 003c 1370     		strb	r3, [r2]
 111:stepper.c     **** 					 
 112:stepper.c     **** 				 }
 113:stepper.c     **** 				 break;
 423              		.loc 1 113 0
 424 003e 08BD     		pop	{r3, pc}
 425              	.LVL40:
 426              	.L27:
 114:stepper.c     **** 				 case 2:
 115:stepper.c     **** 				 case 3:
 116:stepper.c     **** 				 {
 117:stepper.c     **** 					 
 118:stepper.c     **** 					 if(frem==1)
 427              		.loc 1 118 0
 428 0040 0129     		cmp	r1, #1
 429 0042 02D1     		bne	.L32
 119:stepper.c     ****                         coilA2();
 430              		.loc 1 119 0
 431 0044 FFF7FEFF 		bl	coilA2
 432              	.LVL41:
 433 0048 01E0     		b	.L33
 434              	.LVL42:
 435              	.L32:
 120:stepper.c     **** 						
 121:stepper.c     **** 					 else
 122:stepper.c     ****                         coilB1();
 436              		.loc 1 122 0
 437 004a FFF7FEFF 		bl	coilB1
 438              	.LVL43:
 439              	.L33:
 123:stepper.c     **** 						
 124:stepper.c     ****                         stepcount+=2;
 440              		.loc 1 124 0
 441 004e 6F4A     		ldr	r2, .L69
 442 0050 1378     		ldrb	r3, [r2]	@ zero_extendqisi2
 443 0052 0233     		adds	r3, r3, #2
 444 0054 1370     		strb	r3, [r2]
 125:stepper.c     **** 				 }
 126:stepper.c     **** 				 break;
ARM GAS  C:\Users\jespe\AppData\Local\Temp\ccKrMIg3.s 			page 11


 445              		.loc 1 126 0
 446 0056 08BD     		pop	{r3, pc}
 447              	.LVL44:
 448              	.L28:
 127:stepper.c     **** 				 case 4:
 128:stepper.c     **** 				 case 5:
 129:stepper.c     **** 				 {
 130:stepper.c     **** 					 
 131:stepper.c     **** 					 if(frem==1)
 449              		.loc 1 131 0
 450 0058 0129     		cmp	r1, #1
 451 005a 02D1     		bne	.L34
 132:stepper.c     ****                         coilB1();
 452              		.loc 1 132 0
 453 005c FFF7FEFF 		bl	coilB1
 454              	.LVL45:
 455 0060 01E0     		b	.L35
 456              	.LVL46:
 457              	.L34:
 133:stepper.c     **** 					else
 134:stepper.c     **** 						coilA2();
 458              		.loc 1 134 0
 459 0062 FFF7FEFF 		bl	coilA2
 460              	.LVL47:
 461              	.L35:
 135:stepper.c     ****                         
 136:stepper.c     ****                         stepcount+=2;
 462              		.loc 1 136 0
 463 0066 694A     		ldr	r2, .L69
 464 0068 1378     		ldrb	r3, [r2]	@ zero_extendqisi2
 465 006a 0233     		adds	r3, r3, #2
 466 006c 1370     		strb	r3, [r2]
 137:stepper.c     **** 					 
 138:stepper.c     **** 				 }
 139:stepper.c     **** 				 break;
 467              		.loc 1 139 0
 468 006e 08BD     		pop	{r3, pc}
 469              	.LVL48:
 470              	.L29:
 140:stepper.c     **** 				 case 6:
 141:stepper.c     **** 				 case 7:
 142:stepper.c     **** 				 {
 143:stepper.c     **** 					 
 144:stepper.c     **** 					 if(frem==1)
 471              		.loc 1 144 0
 472 0070 0129     		cmp	r1, #1
 473 0072 02D1     		bne	.L36
 145:stepper.c     ****                         coilB2();
 474              		.loc 1 145 0
 475 0074 FFF7FEFF 		bl	coilB2
 476              	.LVL49:
 477 0078 01E0     		b	.L37
 478              	.LVL50:
 479              	.L36:
 146:stepper.c     **** 						
 147:stepper.c     **** 					 else
 148:stepper.c     **** 						coilA1();
ARM GAS  C:\Users\jespe\AppData\Local\Temp\ccKrMIg3.s 			page 12


 480              		.loc 1 148 0
 481 007a FFF7FEFF 		bl	coilA1
 482              	.LVL51:
 483              	.L37:
 149:stepper.c     ****                         stepcount=0;
 484              		.loc 1 149 0
 485 007e 0022     		movs	r2, #0
 486 0080 624B     		ldr	r3, .L69
 487 0082 1A70     		strb	r2, [r3]
 150:stepper.c     ****                         
 151:stepper.c     ****                 }
 152:stepper.c     **** 				 break;
 488              		.loc 1 152 0
 489 0084 08BD     		pop	{r3, pc}
 490              	.LVL52:
 491              	.L24:
 153:stepper.c     **** 				 
 154:stepper.c     **** 				 
 155:stepper.c     **** 			 }
 156:stepper.c     **** 		 }
 157:stepper.c     **** 		 break;
 158:stepper.c     **** 		 case 'f' :
 159:stepper.c     **** 		 {
 160:stepper.c     **** 			 switch(stepcount)
 492              		.loc 1 160 0
 493 0086 614B     		ldr	r3, .L69
 494 0088 1B78     		ldrb	r3, [r3]	@ zero_extendqisi2
 495 008a 072B     		cmp	r3, #7
 496 008c 00F2BD80 		bhi	.L20
 497 0090 DFE803F0 		tbb	[pc, r3]
 498              	.L39:
 499 0094 04       		.byte	(.L38-.L39)/2
 500 0095 04       		.byte	(.L38-.L39)/2
 501 0096 10       		.byte	(.L40-.L39)/2
 502 0097 10       		.byte	(.L40-.L39)/2
 503 0098 1C       		.byte	(.L41-.L39)/2
 504 0099 1C       		.byte	(.L41-.L39)/2
 505 009a 28       		.byte	(.L42-.L39)/2
 506 009b 28       		.byte	(.L42-.L39)/2
 507              		.p2align 1
 508              	.L38:
 161:stepper.c     **** 			 {
 162:stepper.c     **** 				 case 0:
 163:stepper.c     **** 				 case 1:
 164:stepper.c     **** 				 {
 165:stepper.c     **** 					 
 166:stepper.c     **** 					 
 167:stepper.c     **** 					 if(frem==1)
 509              		.loc 1 167 0
 510 009c 0129     		cmp	r1, #1
 511 009e 02D1     		bne	.L43
 168:stepper.c     ****                         coilA1A2();
 512              		.loc 1 168 0
 513 00a0 FFF7FEFF 		bl	coilA1A2
 514              	.LVL53:
 515 00a4 01E0     		b	.L44
 516              	.LVL54:
ARM GAS  C:\Users\jespe\AppData\Local\Temp\ccKrMIg3.s 			page 13


 517              	.L43:
 169:stepper.c     **** 					 else
 170:stepper.c     **** 						coilB2A1();
 518              		.loc 1 170 0
 519 00a6 FFF7FEFF 		bl	coilB2A1
 520              	.LVL55:
 521              	.L44:
 171:stepper.c     ****                         
 172:stepper.c     ****                         stepcount+=2;
 522              		.loc 1 172 0
 523 00aa 584A     		ldr	r2, .L69
 524 00ac 1378     		ldrb	r3, [r2]	@ zero_extendqisi2
 525 00ae 0233     		adds	r3, r3, #2
 526 00b0 1370     		strb	r3, [r2]
 173:stepper.c     **** 					 
 174:stepper.c     **** 				 }
 175:stepper.c     **** 				 break;
 527              		.loc 1 175 0
 528 00b2 08BD     		pop	{r3, pc}
 529              	.LVL56:
 530              	.L40:
 176:stepper.c     **** 				 case 2:
 177:stepper.c     **** 				 case 3:
 178:stepper.c     **** 				 {
 179:stepper.c     **** 					 
 180:stepper.c     **** 					 if(frem==1)
 531              		.loc 1 180 0
 532 00b4 0129     		cmp	r1, #1
 533 00b6 02D1     		bne	.L45
 181:stepper.c     **** 						coilA2B1();
 534              		.loc 1 181 0
 535 00b8 FFF7FEFF 		bl	coilA2B1
 536              	.LVL57:
 537 00bc 01E0     		b	.L46
 538              	.LVL58:
 539              	.L45:
 182:stepper.c     **** 					 else
 183:stepper.c     **** 						coilB1B2();
 540              		.loc 1 183 0
 541 00be FFF7FEFF 		bl	coilB1B2
 542              	.LVL59:
 543              	.L46:
 184:stepper.c     ****                         
 185:stepper.c     ****                     stepcount+=2;
 544              		.loc 1 185 0
 545 00c2 524A     		ldr	r2, .L69
 546 00c4 1378     		ldrb	r3, [r2]	@ zero_extendqisi2
 547 00c6 0233     		adds	r3, r3, #2
 548 00c8 1370     		strb	r3, [r2]
 186:stepper.c     **** 				 }
 187:stepper.c     **** 				 break;
 549              		.loc 1 187 0
 550 00ca 08BD     		pop	{r3, pc}
 551              	.LVL60:
 552              	.L41:
 188:stepper.c     **** 				 case 4:
 189:stepper.c     **** 				 case 5:
ARM GAS  C:\Users\jespe\AppData\Local\Temp\ccKrMIg3.s 			page 14


 190:stepper.c     **** 				 {
 191:stepper.c     **** 					 
 192:stepper.c     **** 					 if(frem==1)
 553              		.loc 1 192 0
 554 00cc 0129     		cmp	r1, #1
 555 00ce 02D1     		bne	.L47
 193:stepper.c     **** 						coilB1B2();
 556              		.loc 1 193 0
 557 00d0 FFF7FEFF 		bl	coilB1B2
 558              	.LVL61:
 559 00d4 01E0     		b	.L48
 560              	.LVL62:
 561              	.L47:
 194:stepper.c     **** 					 else
 195:stepper.c     **** 						coilA2B1();
 562              		.loc 1 195 0
 563 00d6 FFF7FEFF 		bl	coilA2B1
 564              	.LVL63:
 565              	.L48:
 196:stepper.c     **** 					 
 197:stepper.c     ****                     stepcount+=2;
 566              		.loc 1 197 0
 567 00da 4C4A     		ldr	r2, .L69
 568 00dc 1378     		ldrb	r3, [r2]	@ zero_extendqisi2
 569 00de 0233     		adds	r3, r3, #2
 570 00e0 1370     		strb	r3, [r2]
 198:stepper.c     **** 				 }
 199:stepper.c     **** 				 break;
 571              		.loc 1 199 0
 572 00e2 08BD     		pop	{r3, pc}
 573              	.LVL64:
 574              	.L42:
 200:stepper.c     **** 				 case 6:
 201:stepper.c     **** 				 case 7:
 202:stepper.c     **** 				 {
 203:stepper.c     **** 					 
 204:stepper.c     **** 					 if(frem==1)
 575              		.loc 1 204 0
 576 00e4 0129     		cmp	r1, #1
 577 00e6 02D1     		bne	.L49
 205:stepper.c     **** 						coilB2A1();
 578              		.loc 1 205 0
 579 00e8 FFF7FEFF 		bl	coilB2A1
 580              	.LVL65:
 581 00ec 01E0     		b	.L50
 582              	.LVL66:
 583              	.L49:
 206:stepper.c     **** 					 else
 207:stepper.c     **** 					    coilA1A2();
 584              		.loc 1 207 0
 585 00ee FFF7FEFF 		bl	coilA1A2
 586              	.LVL67:
 587              	.L50:
 208:stepper.c     **** 				 }
 209:stepper.c     ****                 
 210:stepper.c     ****                 stepcount=0;
 588              		.loc 1 210 0
ARM GAS  C:\Users\jespe\AppData\Local\Temp\ccKrMIg3.s 			page 15


 589 00f2 0022     		movs	r2, #0
 590 00f4 454B     		ldr	r3, .L69
 591 00f6 1A70     		strb	r2, [r3]
 211:stepper.c     **** 				 break;
 592              		.loc 1 211 0
 593 00f8 08BD     		pop	{r3, pc}
 594              	.LVL68:
 595              	.L22:
 212:stepper.c     **** 				 
 213:stepper.c     **** 				 
 214:stepper.c     **** 			 }
 215:stepper.c     **** 		 }
 216:stepper.c     **** 		 break;
 217:stepper.c     **** 		 case 'h' :
 218:stepper.c     **** 		 {
 219:stepper.c     **** 			 switch(stepcount)
 596              		.loc 1 219 0
 597 00fa 444B     		ldr	r3, .L69
 598 00fc 1B78     		ldrb	r3, [r3]	@ zero_extendqisi2
 599 00fe 072B     		cmp	r3, #7
 600 0100 00F28380 		bhi	.L20
 601 0104 DFE803F0 		tbb	[pc, r3]
 602              	.L52:
 603 0108 04       		.byte	(.L51-.L52)/2
 604 0109 14       		.byte	(.L53-.L52)/2
 605 010a 24       		.byte	(.L54-.L52)/2
 606 010b 34       		.byte	(.L55-.L52)/2
 607 010c 44       		.byte	(.L56-.L52)/2
 608 010d 54       		.byte	(.L57-.L52)/2
 609 010e 64       		.byte	(.L58-.L52)/2
 610 010f 74       		.byte	(.L59-.L52)/2
 611              		.p2align 1
 612              	.L51:
 220:stepper.c     **** 			 {
 221:stepper.c     **** 				 case 0:
 222:stepper.c     **** 				 {
 223:stepper.c     **** 					 
 224:stepper.c     **** 					 
 225:stepper.c     **** 					 if(frem==1)
 613              		.loc 1 225 0
 614 0110 0129     		cmp	r1, #1
 615 0112 06D1     		bne	.L60
 226:stepper.c     ****                     {coilA1();
 616              		.loc 1 226 0
 617 0114 FFF7FEFF 		bl	coilA1
 618              	.LVL69:
 227:stepper.c     ****                     stepcount++;}
 619              		.loc 1 227 0
 620 0118 3C4A     		ldr	r2, .L69
 621 011a 1378     		ldrb	r3, [r2]	@ zero_extendqisi2
 622 011c 0133     		adds	r3, r3, #1
 623 011e 1370     		strb	r3, [r2]
 624 0120 08BD     		pop	{r3, pc}
 625              	.LVL70:
 626              	.L60:
 228:stepper.c     **** 					 else
 229:stepper.c     ****                     {coilB2A1();
ARM GAS  C:\Users\jespe\AppData\Local\Temp\ccKrMIg3.s 			page 16


 627              		.loc 1 229 0
 628 0122 FFF7FEFF 		bl	coilB2A1
 629              	.LVL71:
 230:stepper.c     ****                     stepcount++;}
 630              		.loc 1 230 0
 631 0126 394A     		ldr	r2, .L69
 632 0128 1378     		ldrb	r3, [r2]	@ zero_extendqisi2
 633 012a 0133     		adds	r3, r3, #1
 634 012c 1370     		strb	r3, [r2]
 635 012e 08BD     		pop	{r3, pc}
 636              	.LVL72:
 637              	.L53:
 231:stepper.c     ****                     
 232:stepper.c     **** 					 
 233:stepper.c     **** 				 }
 234:stepper.c     **** 				 break;
 235:stepper.c     **** 				 case 1:
 236:stepper.c     **** 				 {
 237:stepper.c     **** 					 
 238:stepper.c     **** 					 
 239:stepper.c     **** 					 if(frem==1)
 638              		.loc 1 239 0
 639 0130 0129     		cmp	r1, #1
 640 0132 06D1     		bne	.L61
 240:stepper.c     ****                     {coilA1A2();
 641              		.loc 1 240 0
 642 0134 FFF7FEFF 		bl	coilA1A2
 643              	.LVL73:
 241:stepper.c     ****                     stepcount++;}
 644              		.loc 1 241 0
 645 0138 344A     		ldr	r2, .L69
 646 013a 1378     		ldrb	r3, [r2]	@ zero_extendqisi2
 647 013c 0133     		adds	r3, r3, #1
 648 013e 1370     		strb	r3, [r2]
 649 0140 08BD     		pop	{r3, pc}
 650              	.LVL74:
 651              	.L61:
 242:stepper.c     **** 					 else
 243:stepper.c     ****                     {coilB2();
 652              		.loc 1 243 0
 653 0142 FFF7FEFF 		bl	coilB2
 654              	.LVL75:
 244:stepper.c     ****                     stepcount++;}
 655              		.loc 1 244 0
 656 0146 314A     		ldr	r2, .L69
 657 0148 1378     		ldrb	r3, [r2]	@ zero_extendqisi2
 658 014a 0133     		adds	r3, r3, #1
 659 014c 1370     		strb	r3, [r2]
 660 014e 08BD     		pop	{r3, pc}
 661              	.LVL76:
 662              	.L54:
 245:stepper.c     **** 					 
 246:stepper.c     ****                     
 247:stepper.c     **** 				 }
 248:stepper.c     **** 				 break;
 249:stepper.c     **** 				 case 2:
 250:stepper.c     **** 				 {
ARM GAS  C:\Users\jespe\AppData\Local\Temp\ccKrMIg3.s 			page 17


 251:stepper.c     **** 					 
 252:stepper.c     **** 					 if(frem==1)
 663              		.loc 1 252 0
 664 0150 0129     		cmp	r1, #1
 665 0152 06D1     		bne	.L62
 253:stepper.c     ****                     {coilA2();
 666              		.loc 1 253 0
 667 0154 FFF7FEFF 		bl	coilA2
 668              	.LVL77:
 254:stepper.c     ****                     stepcount++;}
 669              		.loc 1 254 0
 670 0158 2C4A     		ldr	r2, .L69
 671 015a 1378     		ldrb	r3, [r2]	@ zero_extendqisi2
 672 015c 0133     		adds	r3, r3, #1
 673 015e 1370     		strb	r3, [r2]
 674 0160 08BD     		pop	{r3, pc}
 675              	.LVL78:
 676              	.L62:
 255:stepper.c     **** 					 else
 256:stepper.c     ****                     {coilB1B2();
 677              		.loc 1 256 0
 678 0162 FFF7FEFF 		bl	coilB1B2
 679              	.LVL79:
 257:stepper.c     ****                     stepcount++;}
 680              		.loc 1 257 0
 681 0166 294A     		ldr	r2, .L69
 682 0168 1378     		ldrb	r3, [r2]	@ zero_extendqisi2
 683 016a 0133     		adds	r3, r3, #1
 684 016c 1370     		strb	r3, [r2]
 685 016e 08BD     		pop	{r3, pc}
 686              	.LVL80:
 687              	.L55:
 258:stepper.c     ****                         
 259:stepper.c     ****                      
 260:stepper.c     **** 				 }
 261:stepper.c     **** 				 break;
 262:stepper.c     **** 				 case 3:
 263:stepper.c     **** 				 {
 264:stepper.c     **** 					 
 265:stepper.c     **** 					 if(frem==1)
 688              		.loc 1 265 0
 689 0170 0129     		cmp	r1, #1
 690 0172 06D1     		bne	.L63
 266:stepper.c     ****                     {coilA2B1();
 691              		.loc 1 266 0
 692 0174 FFF7FEFF 		bl	coilA2B1
 693              	.LVL81:
 267:stepper.c     ****                     stepcount++;}
 694              		.loc 1 267 0
 695 0178 244A     		ldr	r2, .L69
 696 017a 1378     		ldrb	r3, [r2]	@ zero_extendqisi2
 697 017c 0133     		adds	r3, r3, #1
 698 017e 1370     		strb	r3, [r2]
 699 0180 08BD     		pop	{r3, pc}
 700              	.LVL82:
 701              	.L63:
 268:stepper.c     **** 					 else
ARM GAS  C:\Users\jespe\AppData\Local\Temp\ccKrMIg3.s 			page 18


 269:stepper.c     ****                     {coilB1();
 702              		.loc 1 269 0
 703 0182 FFF7FEFF 		bl	coilB1
 704              	.LVL83:
 270:stepper.c     ****                     stepcount++;}
 705              		.loc 1 270 0
 706 0186 214A     		ldr	r2, .L69
 707 0188 1378     		ldrb	r3, [r2]	@ zero_extendqisi2
 708 018a 0133     		adds	r3, r3, #1
 709 018c 1370     		strb	r3, [r2]
 710 018e 08BD     		pop	{r3, pc}
 711              	.LVL84:
 712              	.L56:
 271:stepper.c     ****                         
 272:stepper.c     ****                     
 273:stepper.c     **** 				 }
 274:stepper.c     **** 				 break;
 275:stepper.c     **** 				 case 4:
 276:stepper.c     **** 				 {
 277:stepper.c     **** 					 
 278:stepper.c     **** 					 if(frem==1)
 713              		.loc 1 278 0
 714 0190 0129     		cmp	r1, #1
 715 0192 06D1     		bne	.L64
 279:stepper.c     ****                     {coilB1();
 716              		.loc 1 279 0
 717 0194 FFF7FEFF 		bl	coilB1
 718              	.LVL85:
 280:stepper.c     ****                     stepcount++;}
 719              		.loc 1 280 0
 720 0198 1C4A     		ldr	r2, .L69
 721 019a 1378     		ldrb	r3, [r2]	@ zero_extendqisi2
 722 019c 0133     		adds	r3, r3, #1
 723 019e 1370     		strb	r3, [r2]
 724 01a0 08BD     		pop	{r3, pc}
 725              	.LVL86:
 726              	.L64:
 281:stepper.c     **** 					 else
 282:stepper.c     ****                     {coilA2B1();
 727              		.loc 1 282 0
 728 01a2 FFF7FEFF 		bl	coilA2B1
 729              	.LVL87:
 283:stepper.c     ****                     stepcount++;}
 730              		.loc 1 283 0
 731 01a6 194A     		ldr	r2, .L69
 732 01a8 1378     		ldrb	r3, [r2]	@ zero_extendqisi2
 733 01aa 0133     		adds	r3, r3, #1
 734 01ac 1370     		strb	r3, [r2]
 735 01ae 08BD     		pop	{r3, pc}
 736              	.LVL88:
 737              	.L57:
 284:stepper.c     ****                     
 285:stepper.c     **** 					 
 286:stepper.c     **** 				 }
 287:stepper.c     **** 				 break;
 288:stepper.c     **** 				 case 5:
 289:stepper.c     **** 				 {
ARM GAS  C:\Users\jespe\AppData\Local\Temp\ccKrMIg3.s 			page 19


 290:stepper.c     **** 					 
 291:stepper.c     **** 					 if(frem==1)
 738              		.loc 1 291 0
 739 01b0 0129     		cmp	r1, #1
 740 01b2 06D1     		bne	.L65
 292:stepper.c     ****                     {coilB1B2();
 741              		.loc 1 292 0
 742 01b4 FFF7FEFF 		bl	coilB1B2
 743              	.LVL89:
 293:stepper.c     ****                     stepcount++;}
 744              		.loc 1 293 0
 745 01b8 144A     		ldr	r2, .L69
 746 01ba 1378     		ldrb	r3, [r2]	@ zero_extendqisi2
 747 01bc 0133     		adds	r3, r3, #1
 748 01be 1370     		strb	r3, [r2]
 749 01c0 08BD     		pop	{r3, pc}
 750              	.LVL90:
 751              	.L65:
 294:stepper.c     **** 					 else
 295:stepper.c     ****                     {coilA2();
 752              		.loc 1 295 0
 753 01c2 FFF7FEFF 		bl	coilA2
 754              	.LVL91:
 296:stepper.c     ****                     stepcount++;}
 755              		.loc 1 296 0
 756 01c6 114A     		ldr	r2, .L69
 757 01c8 1378     		ldrb	r3, [r2]	@ zero_extendqisi2
 758 01ca 0133     		adds	r3, r3, #1
 759 01cc 1370     		strb	r3, [r2]
 760 01ce 08BD     		pop	{r3, pc}
 761              	.LVL92:
 762              	.L58:
 297:stepper.c     ****                     
 298:stepper.c     **** 				 }
 299:stepper.c     **** 				 break;
 300:stepper.c     **** 				 case 6:
 301:stepper.c     **** 				 {
 302:stepper.c     **** 					 
 303:stepper.c     **** 					 if(frem==1)
 763              		.loc 1 303 0
 764 01d0 0129     		cmp	r1, #1
 765 01d2 06D1     		bne	.L66
 304:stepper.c     ****                     {coilB2();
 766              		.loc 1 304 0
 767 01d4 FFF7FEFF 		bl	coilB2
 768              	.LVL93:
 305:stepper.c     ****                     stepcount++;}
 769              		.loc 1 305 0
 770 01d8 0C4A     		ldr	r2, .L69
 771 01da 1378     		ldrb	r3, [r2]	@ zero_extendqisi2
 772 01dc 0133     		adds	r3, r3, #1
 773 01de 1370     		strb	r3, [r2]
 774 01e0 08BD     		pop	{r3, pc}
 775              	.LVL94:
 776              	.L66:
 306:stepper.c     **** 					 else
 307:stepper.c     ****                     {coilA1A2();
ARM GAS  C:\Users\jespe\AppData\Local\Temp\ccKrMIg3.s 			page 20


 777              		.loc 1 307 0
 778 01e2 FFF7FEFF 		bl	coilA1A2
 779              	.LVL95:
 308:stepper.c     ****                     stepcount++;}
 780              		.loc 1 308 0
 781 01e6 094A     		ldr	r2, .L69
 782 01e8 1378     		ldrb	r3, [r2]	@ zero_extendqisi2
 783 01ea 0133     		adds	r3, r3, #1
 784 01ec 1370     		strb	r3, [r2]
 785 01ee 08BD     		pop	{r3, pc}
 786              	.LVL96:
 787              	.L59:
 309:stepper.c     ****                         
 310:stepper.c     ****                     
 311:stepper.c     **** 				 }
 312:stepper.c     **** 				 break;
 313:stepper.c     **** 				 case 7:
 314:stepper.c     **** 				 {
 315:stepper.c     **** 					 
 316:stepper.c     **** 					 if(frem==1)
 788              		.loc 1 316 0
 789 01f0 0129     		cmp	r1, #1
 790 01f2 05D1     		bne	.L67
 317:stepper.c     ****                     {coilB2A1();
 791              		.loc 1 317 0
 792 01f4 FFF7FEFF 		bl	coilB2A1
 793              	.LVL97:
 318:stepper.c     ****                     stepcount=0;}
 794              		.loc 1 318 0
 795 01f8 0022     		movs	r2, #0
 796 01fa 044B     		ldr	r3, .L69
 797 01fc 1A70     		strb	r2, [r3]
 798 01fe 08BD     		pop	{r3, pc}
 799              	.LVL98:
 800              	.L67:
 319:stepper.c     **** 					 else
 320:stepper.c     ****                     {coilA1();
 801              		.loc 1 320 0
 802 0200 FFF7FEFF 		bl	coilA1
 803              	.LVL99:
 321:stepper.c     ****                     stepcount=0;}
 804              		.loc 1 321 0
 805 0204 0022     		movs	r2, #0
 806 0206 014B     		ldr	r3, .L69
 807 0208 1A70     		strb	r2, [r3]
 808              	.L20:
 809 020a 08BD     		pop	{r3, pc}
 810              	.L70:
 811              		.align	2
 812              	.L69:
 813 020c 00000000 		.word	.LANCHOR0
 814              		.cfi_endproc
 815              	.LFE73:
 816              		.size	takestep, .-takestep
 817              		.section	.text.numberOfSteps,"ax",%progbits
 818              		.align	2
 819              		.global	numberOfSteps
ARM GAS  C:\Users\jespe\AppData\Local\Temp\ccKrMIg3.s 			page 21


 820              		.thumb
 821              		.thumb_func
 822              		.type	numberOfSteps, %function
 823              	numberOfSteps:
 824              	.LFB74:
 322:stepper.c     ****                    
 323:stepper.c     **** 				 }
 324:stepper.c     **** 				 break;
 325:stepper.c     **** 				 
 326:stepper.c     **** 				 
 327:stepper.c     **** 			 }
 328:stepper.c     **** 		 }
 329:stepper.c     **** 		 break;
 330:stepper.c     **** 		 default :
 331:stepper.c     **** 		 {
 332:stepper.c     **** 			 // nothing
 333:stepper.c     **** 		 }
 334:stepper.c     **** 		 break;
 335:stepper.c     **** 	 }
 336:stepper.c     **** }
 337:stepper.c     **** 
 338:stepper.c     **** void numberOfSteps(int steps, char mode)
 339:stepper.c     **** {
 825              		.loc 1 339 0
 826              		.cfi_startproc
 827              		@ args = 0, pretend = 0, frame = 0
 828              		@ frame_needed = 0, uses_anonymous_args = 0
 829              	.LVL100:
 830 0000 70B5     		push	{r4, r5, r6, lr}
 831              		.cfi_def_cfa_offset 16
 832              		.cfi_offset 4, -16
 833              		.cfi_offset 5, -12
 834              		.cfi_offset 6, -8
 835              		.cfi_offset 14, -4
 836 0002 0E46     		mov	r6, r1
 837              	.LVL101:
 340:stepper.c     **** 	char step_mode = mode;
 341:stepper.c     **** 	if(steps<0)
 838              		.loc 1 341 0
 839 0004 051E     		subs	r5, r0, #0
 840 0006 0CDA     		bge	.L73
 841 0008 08E0     		b	.L77
 842              	.LVL102:
 843              	.L74:
 844              	.LBB2:
 342:stepper.c     **** 	for(int i=0; i>steps; i--)// tager antal steps
 343:stepper.c     **** 	{
 344:stepper.c     **** 		
 345:stepper.c     **** 			takestep(step_mode, 0);
 845              		.loc 1 345 0 discriminator 3
 846 000a 0021     		movs	r1, #0
 847 000c 3046     		mov	r0, r6
 848 000e FFF7FEFF 		bl	takestep
 849              	.LVL103:
 346:stepper.c     **** 		
 347:stepper.c     **** 		
 348:stepper.c     **** 			 CyDelay(5);
ARM GAS  C:\Users\jespe\AppData\Local\Temp\ccKrMIg3.s 			page 22


 850              		.loc 1 348 0 discriminator 3
 851 0012 0520     		movs	r0, #5
 852 0014 FFF7FEFF 		bl	CyDelay
 853              	.LVL104:
 342:stepper.c     **** 	for(int i=0; i>steps; i--)// tager antal steps
 854              		.loc 1 342 0 discriminator 3
 855 0018 013C     		subs	r4, r4, #1
 856              	.LVL105:
 857 001a 00E0     		b	.L72
 858              	.LVL106:
 859              	.L77:
 860              	.LBE2:
 861 001c 0024     		movs	r4, #0
 862              	.LVL107:
 863              	.L72:
 864              	.LBB3:
 342:stepper.c     **** 	for(int i=0; i>steps; i--)// tager antal steps
 865              		.loc 1 342 0 is_stmt 0 discriminator 1
 866 001e AC42     		cmp	r4, r5
 867 0020 F3DC     		bgt	.L74
 868              	.LVL108:
 869              	.L73:
 870              	.LBE3:
 871 0022 0024     		movs	r4, #0
 872 0024 07E0     		b	.L75
 873              	.LVL109:
 874              	.L76:
 875              	.LBB4:
 349:stepper.c     **** 		
 350:stepper.c     **** 	}
 351:stepper.c     **** 	
 352:stepper.c     **** 	 for(int i=0; i<steps; i++)// tager antal steps
 353:stepper.c     **** 	 {
 354:stepper.c     **** 		 
 355:stepper.c     **** 		 {takestep(step_mode, 1);}
 876              		.loc 1 355 0 is_stmt 1 discriminator 3
 877 0026 0121     		movs	r1, #1
 878 0028 3046     		mov	r0, r6
 879 002a FFF7FEFF 		bl	takestep
 880              	.LVL110:
 356:stepper.c     **** 		 
 357:stepper.c     **** 		  CyDelay(5);
 881              		.loc 1 357 0 discriminator 3
 882 002e 0520     		movs	r0, #5
 883 0030 FFF7FEFF 		bl	CyDelay
 884              	.LVL111:
 352:stepper.c     **** 	 {
 885              		.loc 1 352 0 discriminator 3
 886 0034 0134     		adds	r4, r4, #1
 887              	.LVL112:
 888              	.L75:
 352:stepper.c     **** 	 {
 889              		.loc 1 352 0 is_stmt 0 discriminator 1
 890 0036 AC42     		cmp	r4, r5
 891 0038 F5DB     		blt	.L76
 892              	.LBE4:
 358:stepper.c     **** 		 
ARM GAS  C:\Users\jespe\AppData\Local\Temp\ccKrMIg3.s 			page 23


 359:stepper.c     **** 	 }
 360:stepper.c     **** 	 
 361:stepper.c     **** }
 893              		.loc 1 361 0 is_stmt 1
 894 003a 70BD     		pop	{r4, r5, r6, pc}
 895              		.cfi_endproc
 896              	.LFE74:
 897              		.size	numberOfSteps, .-numberOfSteps
 898              		.global	__aeabi_i2d
 899              		.global	__aeabi_dmul
 900              		.global	__aeabi_d2iz
 901              		.section	.text.stepperdriver_rotateTo,"ax",%progbits
 902              		.align	2
 903              		.global	stepperdriver_rotateTo
 904              		.thumb
 905              		.thumb_func
 906              		.type	stepperdriver_rotateTo, %function
 907              	stepperdriver_rotateTo:
 908              	.LFB75:
 362:stepper.c     **** 
 363:stepper.c     **** 
 364:stepper.c     **** 
 365:stepper.c     **** 
 366:stepper.c     **** void stepperdriver_rotateTo(int targetDegrees, char mode) {
 909              		.loc 1 366 0
 910              		.cfi_startproc
 911              		@ args = 0, pretend = 0, frame = 0
 912              		@ frame_needed = 0, uses_anonymous_args = 0
 913              	.LVL113:
 367:stepper.c     **** 	if(targetDegrees<=180 && targetDegrees>=0)
 914              		.loc 1 367 0
 915 0000 B428     		cmp	r0, #180
 916 0002 2CD8     		bhi	.L83
 366:stepper.c     **** 	if(targetDegrees<=180 && targetDegrees>=0)
 917              		.loc 1 366 0
 918 0004 38B5     		push	{r3, r4, r5, lr}
 919              		.cfi_def_cfa_offset 16
 920              		.cfi_offset 3, -16
 921              		.cfi_offset 4, -12
 922              		.cfi_offset 5, -8
 923              		.cfi_offset 14, -4
 924 0006 0D46     		mov	r5, r1
 925 0008 0446     		mov	r4, r0
 368:stepper.c     **** 	{
 369:stepper.c     ****         if(mode == 'h')
 926              		.loc 1 369 0
 927 000a 6829     		cmp	r1, #104
 928 000c 13D1     		bne	.L81
 370:stepper.c     ****         {
 371:stepper.c     **** 		if(targetDegrees!=currentPosition)
 929              		.loc 1 371 0
 930 000e 184B     		ldr	r3, .L84+16
 931 0010 5868     		ldr	r0, [r3, #4]
 932              	.LVL114:
 933 0012 8442     		cmp	r4, r0
 934 0014 22D0     		beq	.L79
 935              	.LBB5:
ARM GAS  C:\Users\jespe\AppData\Local\Temp\ccKrMIg3.s 			page 24


 372:stepper.c     **** 		{
 373:stepper.c     **** 			int stepsToTake = (targetDegrees - currentPosition) * STEPS_PER_DEGREE_half;
 936              		.loc 1 373 0
 937 0016 201A     		subs	r0, r4, r0
 938 0018 FFF7FEFF 		bl	__aeabi_i2d
 939              	.LVL115:
 940 001c 10A3     		adr	r3, .L84
 941 001e D3E90023 		ldrd	r2, [r3]
 942 0022 FFF7FEFF 		bl	__aeabi_dmul
 943              	.LVL116:
 944 0026 FFF7FEFF 		bl	__aeabi_d2iz
 945              	.LVL117:
 374:stepper.c     **** 
 375:stepper.c     **** 			currentPosition = targetDegrees;
 946              		.loc 1 375 0
 947 002a 114B     		ldr	r3, .L84+16
 948 002c 5C60     		str	r4, [r3, #4]
 376:stepper.c     **** 
 377:stepper.c     **** 			numberOfSteps(stepsToTake, mode);
 949              		.loc 1 377 0
 950 002e 2946     		mov	r1, r5
 951 0030 FFF7FEFF 		bl	numberOfSteps
 952              	.LVL118:
 953 0034 38BD     		pop	{r3, r4, r5, pc}
 954              	.LVL119:
 955              	.L81:
 956              	.LBE5:
 378:stepper.c     **** 		}
 379:stepper.c     ****         }
 380:stepper.c     ****         else
 381:stepper.c     ****         {
 382:stepper.c     **** 		if(targetDegrees!=currentPosition)
 957              		.loc 1 382 0
 958 0036 0E4B     		ldr	r3, .L84+16
 959 0038 5868     		ldr	r0, [r3, #4]
 960              	.LVL120:
 961 003a 8442     		cmp	r4, r0
 962 003c 0ED0     		beq	.L79
 963              	.LBB6:
 383:stepper.c     **** 		{
 384:stepper.c     **** 			int stepsToTake = (targetDegrees - currentPosition) * STEPS_PER_DEGREE_other;
 964              		.loc 1 384 0
 965 003e 201A     		subs	r0, r4, r0
 966 0040 FFF7FEFF 		bl	__aeabi_i2d
 967              	.LVL121:
 968 0044 08A3     		adr	r3, .L84+8
 969 0046 D3E90023 		ldrd	r2, [r3]
 970 004a FFF7FEFF 		bl	__aeabi_dmul
 971              	.LVL122:
 972 004e FFF7FEFF 		bl	__aeabi_d2iz
 973              	.LVL123:
 385:stepper.c     **** 
 386:stepper.c     **** 			currentPosition = targetDegrees;
 974              		.loc 1 386 0
 975 0052 074B     		ldr	r3, .L84+16
 976 0054 5C60     		str	r4, [r3, #4]
 387:stepper.c     **** 
ARM GAS  C:\Users\jespe\AppData\Local\Temp\ccKrMIg3.s 			page 25


 388:stepper.c     **** 			numberOfSteps(stepsToTake, mode);
 977              		.loc 1 388 0
 978 0056 2946     		mov	r1, r5
 979 0058 FFF7FEFF 		bl	numberOfSteps
 980              	.LVL124:
 981              	.L79:
 982 005c 38BD     		pop	{r3, r4, r5, pc}
 983              	.LVL125:
 984              	.L83:
 985              		.cfi_def_cfa_offset 0
 986              		.cfi_restore 3
 987              		.cfi_restore 4
 988              		.cfi_restore 5
 989              		.cfi_restore 14
 990 005e 7047     		bx	lr
 991              	.L85:
 992              		.align	3
 993              	.L84:
 994 0060 4A0C022B 		.word	721554506
 995 0064 8716D13F 		.word	1070667399
 996 0068 A01A2FDD 		.word	-584115552
 997 006c 2406C13F 		.word	1069614628
 998 0070 00000000 		.word	.LANCHOR0
 999              	.LBE6:
 1000              		.cfi_endproc
 1001              	.LFE75:
 1002              		.size	stepperdriver_rotateTo, .-stepperdriver_rotateTo
 1003              		.global	currentPosition
 1004              		.bss
 1005              		.align	2
 1006              		.set	.LANCHOR0,. + 0
 1007              		.type	stepcount, %object
 1008              		.size	stepcount, 1
 1009              	stepcount:
 1010 0000 00       		.space	1
 1011 0001 000000   		.space	3
 1012              		.type	currentPosition, %object
 1013              		.size	currentPosition, 4
 1014              	currentPosition:
 1015 0004 00000000 		.space	4
 1016              		.text
 1017              	.Letext0:
 1018              		.file 2 "c:\\program files (x86)\\cypress\\psoc creator\\4.2\\psoc creator\\import\\gnu\\arm\\5.4.
 1019              		.file 3 "c:\\program files (x86)\\cypress\\psoc creator\\4.2\\psoc creator\\import\\gnu\\arm\\5.4.
 1020              		.file 4 "Generated_Source\\PSoC5/core_cm3.h"
 1021              		.file 5 "Generated_Source\\PSoC5/A2.h"
 1022              		.file 6 "Generated_Source\\PSoC5/B1.h"
 1023              		.file 7 "Generated_Source\\PSoC5/B2.h"
 1024              		.file 8 "Generated_Source\\PSoC5/A1.h"
 1025              		.file 9 "Generated_Source\\PSoC5/CyLib.h"